	.file	"binary-trees.c"
	.text
	.p2align 4
	.type	create_Tree, @function
create_Tree:
.LFB53:
	.cfi_startproc
	pushq	%r13
	.cfi_def_cfa_offset 16
	.cfi_offset 13, -16
	movq	%rsi, %r13
	movl	$16, %esi
	pushq	%r12
	.cfi_def_cfa_offset 24
	.cfi_offset 12, -24
	pushq	%rbp
	.cfi_def_cfa_offset 32
	.cfi_offset 6, -32
	movq	%rdi, %rbp
	movq	%r13, %rdi
	call	apr_palloc@PLT
	pxor	%xmm0, %xmm0
	movq	%rax, %r12
	movups	%xmm0, (%rax)
	testq	%rbp, %rbp
	jle	.L1
	subq	$1, %rbp
	movq	%r13, %rsi
	movq	%rbp, %rdi
	call	create_Tree
	movq	%r13, %rsi
	movq	%rbp, %rdi
	movq	%rax, (%r12)
	call	create_Tree
	movq	%rax, 8(%r12)
.L1:
	movq	%r12, %rax
	popq	%rbp
	.cfi_def_cfa_offset 24
	popq	%r12
	.cfi_def_cfa_offset 16
	popq	%r13
	.cfi_def_cfa_offset 8
	ret
	.cfi_endproc
.LFE53:
	.size	create_Tree, .-create_Tree
	.p2align 4
	.type	compute_Tree_Checksum.isra.0, @function
compute_Tree_Checksum.isra.0:
.LFB56:
	.cfi_startproc
	testq	%rdi, %rdi
	je	.L9
	pushq	%rbp
	.cfi_def_cfa_offset 16
	.cfi_offset 6, -16
	xorl	%ebp, %ebp
	pushq	%rbx
	.cfi_def_cfa_offset 24
	.cfi_offset 3, -24
	movq	%rsi, %rbx
	subq	$8, %rsp
	.cfi_def_cfa_offset 32
.L8:
	movq	(%rbx), %rbx
	testq	%rbx, %rbx
	je	.L15
	leaq	8(%rdi), %rsi
	movq	(%rdi), %rdi
	addq	$8, %rbx
	call	compute_Tree_Checksum.isra.0
	movq	-8(%rbx), %rdi
	leaq	1(%rbp,%rax), %rbp
	testq	%rdi, %rdi
	jne	.L8
.L15:
	addq	$8, %rsp
	.cfi_def_cfa_offset 24
	leaq	1(%rbp), %rax
	popq	%rbx
	.cfi_def_cfa_offset 16
	popq	%rbp
	.cfi_def_cfa_offset 8
	ret
	.p2align 4,,10
	.p2align 3
.L9:
	.cfi_restore 3
	.cfi_restore 6
	movl	$1, %eax
	ret
	.cfi_endproc
.LFE56:
	.size	compute_Tree_Checksum.isra.0, .-compute_Tree_Checksum.isra.0
	.section	.rodata.str1.8,"aMS",@progbits,1
	.align 8
.LC0:
	.string	"stretch tree of depth %jd\t check: %jd\n"
	.align 8
.LC1:
	.string	"%jd\t trees of depth %jd\t check: %jd\n"
	.align 8
.LC2:
	.string	"long lived tree of depth %jd\t check: %jd\n"
	.section	.text.startup,"ax",@progbits
	.p2align 4
	.globl	main
	.type	main, @function
main:
.LFB55:
	.cfi_startproc
	endbr64
	pushq	%rbp
	.cfi_def_cfa_offset 16
	.cfi_offset 6, -16
	movl	$10, %edx
	movq	%rsp, %rbp
	.cfi_def_cfa_register 6
	pushq	%r15
	pushq	%r14
	pushq	%r13
	pushq	%r12
	pushq	%rbx
	.cfi_offset 15, -24
	.cfi_offset 14, -32
	.cfi_offset 13, -40
	.cfi_offset 12, -48
	.cfi_offset 3, -56
	movq	%rsi, %rbx
	subq	$152, %rsp
	movq	8(%rsi), %rdi
	xorl	%esi, %esi
	movq	%fs:40, %rax
	movq	%rax, -56(%rbp)
	xorl	%eax, %eax
	call	strtol@PLT
	cmpl	$5, %eax
	jg	.L56
	movq	$6, -128(%rbp)
	movl	$16, %ebx
	movl	$7, %r12d
.L17:
	call	apr_initialize@PLT
	xorl	%edx, %edx
	leaq	-72(%rbp), %rdi
	xorl	%esi, %esi
	call	apr_pool_create_unmanaged_ex@PLT
	movq	-72(%rbp), %rsi
	movq	%r12, %rdi
	call	create_Tree
	movq	(%rax), %rdi
	leaq	8(%rax), %rsi
	call	compute_Tree_Checksum.isra.0
	movq	%r12, %rdx
	movl	$1, %edi
	leaq	.LC0(%rip), %rsi
	movq	%rax, %rcx
	xorl	%eax, %eax
	call	__printf_chk@PLT
	movq	-72(%rbp), %rdi
	call	apr_pool_clear@PLT
	leaq	15(%rbx), %rax
	movq	%rsp, %rbx
	movq	%rax, %rdx
	andq	$-4096, %rax
	subq	%rax, %rbx
	andq	$-16, %rdx
	movq	%rbx, %rax
	cmpq	%rax, %rsp
	je	.L19
.L57:
	subq	$4096, %rsp
	orq	$0, 4088(%rsp)
	cmpq	%rax, %rsp
	jne	.L57
.L19:
	andl	$4095, %edx
	subq	%rdx, %rsp
	testq	%rdx, %rdx
	jne	.L58
.L20:
	movq	-128(%rbp), %rbx
	movq	-72(%rbp), %rsi
	movq	%rsp, -136(%rbp)
	movq	%rbx, %rdi
	call	create_Tree
	movq	(%rax), %rdi
	leaq	8(%rax), %rsi
	call	compute_Tree_Checksum.isra.0
	xorl	%edx, %edx
	xorl	%esi, %esi
	leaq	-64(%rbp), %rdi
	movq	%rax, -168(%rbp)
	call	apr_pool_create_unmanaged_ex@PLT
	cmpq	$3, %rbx
	jle	.L21
	movl	%ebx, %eax
	movl	%ebx, -144(%rbp)
	addl	$4, %eax
	movq	$4, -96(%rbp)
	movl	%eax, -140(%rbp)
	.p2align 4,,10
	.p2align 3
.L31:
	movq	-96(%rbp), %rdx
	movl	-140(%rbp), %ecx
	movl	$1, %eax
	movq	$0, -104(%rbp)
	subl	%edx, %ecx
	leaq	-4(%rdx), %rbx
	sall	%cl, %eax
	movq	%rbx, -120(%rbp)
	cltq
	leaq	-1(%rax), %r15
	testq	%rax, %rax
	jle	.L22
	leaq	-7(%rdx), %rax
	movq	%rax, -112(%rbp)
	.p2align 4,,10
	.p2align 3
.L30:
	movq	-64(%rbp), %rdi
	call	apr_pool_clear@PLT
	movq	-64(%rbp), %r12
	movl	$16, %esi
	movq	%r12, %rdi
	call	apr_palloc@PLT
	pxor	%xmm0, %xmm0
	movl	$16, %esi
	movq	%r12, %rdi
	movups	%xmm0, (%rax)
	movq	%rax, -88(%rbp)
	call	apr_palloc@PLT
	pxor	%xmm0, %xmm0
	movl	$16, %esi
	movq	%r12, %rdi
	movups	%xmm0, (%rax)
	movq	%rax, %rbx
	call	apr_palloc@PLT
	pxor	%xmm0, %xmm0
	movl	$16, %esi
	movq	%r12, %rdi
	movups	%xmm0, (%rax)
	movq	%rax, %r13
	call	apr_palloc@PLT
	pxor	%xmm0, %xmm0
	movl	$16, %esi
	movq	%r12, %rdi
	movups	%xmm0, (%rax)
	movq	%rax, %r14
	call	apr_palloc@PLT
	pxor	%xmm0, %xmm0
	cmpq	$4, -96(%rbp)
	movq	-88(%rbp), %rcx
	movups	%xmm0, (%rax)
	jne	.L59
	movq	%rax, (%r14)
	movl	$16, %esi
	movq	%r12, %rdi
	movq	%rcx, -88(%rbp)
	call	apr_palloc@PLT
	pxor	%xmm1, %xmm1
	movl	$16, %esi
	movq	%r12, %rdi
	movups	%xmm1, (%rax)
	movq	%rax, 8(%r14)
	movq	%r14, 0(%r13)
	call	apr_palloc@PLT
	pxor	%xmm1, %xmm1
	movl	$16, %esi
	movq	%r12, %rdi
	movups	%xmm1, (%rax)
	movq	%rax, %r14
	call	apr_palloc@PLT
	pxor	%xmm1, %xmm1
	movl	$16, %esi
	movq	%r12, %rdi
	movups	%xmm1, (%rax)
	movq	%rax, (%r14)
	call	apr_palloc@PLT
	pxor	%xmm1, %xmm1
	movl	$16, %esi
	movq	%r12, %rdi
	movups	%xmm1, (%rax)
	movq	%rax, 8(%r14)
	movq	%r14, 8(%r13)
	movq	%r13, (%rbx)
	call	apr_palloc@PLT
	pxor	%xmm1, %xmm1
	movl	$16, %esi
	movq	%r12, %rdi
	movups	%xmm1, (%rax)
	movq	%rax, %r13
	call	apr_palloc@PLT
	pxor	%xmm1, %xmm1
	movl	$16, %esi
	movq	%r12, %rdi
	movups	%xmm1, (%rax)
	movq	%rax, %r14
	call	apr_palloc@PLT
	pxor	%xmm1, %xmm1
	movl	$16, %esi
	movq	%r12, %rdi
	movups	%xmm1, (%rax)
	movq	%rax, (%r14)
	call	apr_palloc@PLT
	pxor	%xmm1, %xmm1
	movl	$16, %esi
	movq	%r12, %rdi
	movups	%xmm1, (%rax)
	movq	%rax, 8(%r14)
	movq	%r14, 0(%r13)
	call	apr_palloc@PLT
	pxor	%xmm1, %xmm1
	movl	$16, %esi
	movq	%r12, %rdi
	movups	%xmm1, (%rax)
	movq	%rax, %r14
	call	apr_palloc@PLT
	pxor	%xmm1, %xmm1
	movl	$16, %esi
	movq	%r12, %rdi
	movups	%xmm1, (%rax)
	movq	%rax, (%r14)
	call	apr_palloc@PLT
	movq	-88(%rbp), %rcx
	pxor	%xmm1, %xmm1
	movq	%r12, %rdi
	movups	%xmm1, (%rax)
	movl	$16, %esi
	movq	%rax, 8(%r14)
	movq	%r14, 8(%r13)
	movq	%r13, 8(%rbx)
	movq	%rbx, (%rcx)
	call	apr_palloc@PLT
	pxor	%xmm1, %xmm1
	movl	$16, %esi
	movq	%r12, %rdi
	movups	%xmm1, (%rax)
	movq	%rax, %r14
	call	apr_palloc@PLT
	pxor	%xmm1, %xmm1
	movl	$16, %esi
	movq	%r12, %rdi
	movups	%xmm1, (%rax)
	movq	%rax, %rbx
	call	apr_palloc@PLT
	pxor	%xmm1, %xmm1
	movl	$16, %esi
	movq	%r12, %rdi
	movups	%xmm1, (%rax)
	movq	%rax, %r13
	call	apr_palloc@PLT
	pxor	%xmm1, %xmm1
	movl	$16, %esi
	movq	%r12, %rdi
	movups	%xmm1, (%rax)
	movq	%rax, 0(%r13)
	call	apr_palloc@PLT
	pxor	%xmm1, %xmm1
	movl	$16, %esi
	movq	%r12, %rdi
	movups	%xmm1, (%rax)
	movq	%rax, 8(%r13)
	movq	%r13, (%rbx)
	call	apr_palloc@PLT
	pxor	%xmm1, %xmm1
	movl	$16, %esi
	movq	%r12, %rdi
	movups	%xmm1, (%rax)
	movq	%rax, %r13
	call	apr_palloc@PLT
	pxor	%xmm1, %xmm1
	movl	$16, %esi
	movq	%r12, %rdi
	movups	%xmm1, (%rax)
	movq	%rax, 0(%r13)
	call	apr_palloc@PLT
	pxor	%xmm1, %xmm1
	movl	$16, %esi
	movq	%r12, %rdi
	movups	%xmm1, (%rax)
	movq	%rax, 8(%r13)
	movq	%r13, 8(%rbx)
	movq	%rbx, (%r14)
	call	apr_palloc@PLT
	pxor	%xmm1, %xmm1
	movl	$16, %esi
	movq	%r12, %rdi
	movups	%xmm1, (%rax)
	movq	%rax, %r13
	call	apr_palloc@PLT
	pxor	%xmm1, %xmm1
	movl	$16, %esi
	movq	%r12, %rdi
	movups	%xmm1, (%rax)
	movq	%rax, %rbx
	call	apr_palloc@PLT
	pxor	%xmm1, %xmm1
	movl	$16, %esi
	movq	%r12, %rdi
	movups	%xmm1, (%rax)
	movq	%rax, (%rbx)
	call	apr_palloc@PLT
	pxor	%xmm1, %xmm1
	movl	$16, %esi
	movq	%r12, %rdi
	movups	%xmm1, (%rax)
	movq	%rax, 8(%rbx)
	movq	%rbx, 0(%r13)
	call	apr_palloc@PLT
	pxor	%xmm1, %xmm1
	movl	$16, %esi
	movq	%r12, %rdi
	movups	%xmm1, (%rax)
	movq	%rax, %rbx
	call	apr_palloc@PLT
	pxor	%xmm1, %xmm1
	movl	$16, %esi
	movq	%r12, %rdi
	movups	%xmm1, (%rax)
	movq	%rax, (%rbx)
	call	apr_palloc@PLT
	pxor	%xmm1, %xmm1
	movq	-88(%rbp), %rcx
	movups	%xmm1, (%rax)
	movq	%rax, %rdx
.L35:
	movq	%rdx, 8(%rbx)
	movq	%rbx, 8(%r13)
	movq	%r13, 8(%r14)
	movq	(%rcx), %rax
	movq	%r14, 8(%rcx)
	xorl	%ecx, %ecx
	testq	%rax, %rax
	je	.L60
.L26:
	movq	(%rax), %rdi
	leaq	8(%rax), %rsi
	call	compute_Tree_Checksum.isra.0
	movq	%rax, %r8
	movq	(%r14), %rax
	leaq	1(%rcx,%r8), %rcx
	testq	%rax, %rax
	je	.L55
	movq	8(%r14), %r14
	testq	%r14, %r14
	jne	.L26
.L55:
	addq	$1, %rcx
.L27:
	subq	$1, %r15
	addq	%rcx, -104(%rbp)
	cmpq	$-1, %r15
	jne	.L30
.L22:
	movq	-120(%rbp), %rax
	movq	-136(%rbp), %rbx
	movq	-104(%rbp), %rdx
	addq	$2, -96(%rbp)
	sarq	%rax
	movq	%rdx, (%rbx,%rax,8)
	movq	-96(%rbp), %rax
	cmpq	%rax, -128(%rbp)
	jge	.L31
	movq	-64(%rbp), %rdi
	xorl	%r13d, %r13d
	movl	$1, %r12d
	call	apr_pool_destroy@PLT
	movq	-128(%rbp), %rax
	movl	-144(%rbp), %r14d
	movq	-136(%rbp), %r15
	leaq	-4(%rax), %rbx
	andq	$-2, %rbx
	.p2align 4,,10
	.p2align 3
.L33:
	movq	%r13, %rax
	movl	%r14d, %ecx
	leaq	4(%r13), %r9
	movq	%r12, %rdx
	sarq	%rax
	subl	%r13d, %ecx
	movl	$1, %edi
	movq	(%r15,%rax,8), %r8
	salq	%cl, %rdx
	leaq	.LC1(%rip), %rsi
	xorl	%eax, %eax
	movq	%r9, %rcx
	call	__printf_chk@PLT
	movq	%r13, %rax
	addq	$2, %r13
	cmpq	%rax, %rbx
	jne	.L33
.L37:
	movq	-168(%rbp), %rcx
	movq	-128(%rbp), %rdx
	movl	$1, %edi
	xorl	%eax, %eax
	leaq	.LC2(%rip), %rsi
	call	__printf_chk@PLT
	movq	-72(%rbp), %rdi
	call	apr_pool_destroy@PLT
	call	apr_terminate@PLT
	movq	-56(%rbp), %rax
	xorq	%fs:40, %rax
	jne	.L61
	leaq	-40(%rbp), %rsp
	xorl	%eax, %eax
	popq	%rbx
	popq	%r12
	popq	%r13
	popq	%r14
	popq	%r15
	popq	%rbp
	.cfi_remember_state
	.cfi_def_cfa 7, 8
	ret
	.p2align 4,,10
	.p2align 3
.L60:
	.cfi_restore_state
	movl	$1, %ecx
	jmp	.L27
	.p2align 4,,10
	.p2align 3
.L59:
	movl	$16, %esi
	movq	%r12, %rdi
	movq	%rcx, -152(%rbp)
	movq	%rax, -160(%rbp)
	call	apr_palloc@PLT
	pxor	%xmm0, %xmm0
	movl	$16, %esi
	movq	%r12, %rdi
	movups	%xmm0, (%rax)
	movq	%rax, -88(%rbp)
	call	apr_palloc@PLT
	pxor	%xmm0, %xmm0
	movq	-88(%rbp), %r8
	cmpq	$6, -96(%rbp)
	movq	-152(%rbp), %rcx
	movq	-160(%rbp), %rdx
	movups	%xmm0, (%rax)
	jne	.L62
	movq	%rax, (%r8)
	movl	$16, %esi
	movq	%r12, %rdi
	movq	%rcx, -176(%rbp)
	movq	%rdx, -152(%rbp)
	movq	%r8, -88(%rbp)
	call	apr_palloc@PLT
	movq	-88(%rbp), %r8
	pxor	%xmm4, %xmm4
	movq	%r12, %rdi
	movq	-152(%rbp), %rdx
	movups	%xmm4, (%rax)
	movl	$16, %esi
	movq	%rax, 8(%r8)
	movq	%r8, (%rdx)
	call	apr_palloc@PLT
	pxor	%xmm4, %xmm4
	movl	$16, %esi
	movq	%r12, %rdi
	movups	%xmm4, (%rax)
	movq	%rax, -88(%rbp)
	call	apr_palloc@PLT
	movq	-88(%rbp), %r8
	pxor	%xmm4, %xmm4
	movq	%r12, %rdi
	movups	%xmm4, (%rax)
	movl	$16, %esi
	movq	%rax, (%r8)
	call	apr_palloc@PLT
	movq	-88(%rbp), %r8
	pxor	%xmm4, %xmm4
	movq	%r12, %rdi
	movq	-152(%rbp), %rdx
	movups	%xmm4, (%rax)
	movl	$16, %esi
	movq	%rax, 8(%r8)
	movq	%r8, 8(%rdx)
	movq	%rdx, (%r14)
	call	apr_palloc@PLT
	pxor	%xmm4, %xmm4
	movl	$16, %esi
	movq	%r12, %rdi
	movups	%xmm4, (%rax)
	movq	%rax, -152(%rbp)
	call	apr_palloc@PLT
	pxor	%xmm4, %xmm4
	movl	$16, %esi
	movq	%r12, %rdi
	movups	%xmm4, (%rax)
	movq	%rax, -88(%rbp)
	call	apr_palloc@PLT
	movq	-88(%rbp), %r8
	pxor	%xmm4, %xmm4
	movq	%r12, %rdi
	movups	%xmm4, (%rax)
	movl	$16, %esi
	movq	%rax, (%r8)
	call	apr_palloc@PLT
	movq	-88(%rbp), %r8
	pxor	%xmm4, %xmm4
	movq	%r12, %rdi
	movq	-152(%rbp), %rdx
	movups	%xmm4, (%rax)
	movl	$16, %esi
	movq	%rax, 8(%r8)
	movq	%r8, (%rdx)
	call	apr_palloc@PLT
	pxor	%xmm4, %xmm4
	movl	$16, %esi
	movq	%r12, %rdi
	movups	%xmm4, (%rax)
	movq	%rax, -88(%rbp)
	call	apr_palloc@PLT
	movq	-88(%rbp), %r8
	pxor	%xmm4, %xmm4
	movq	%r12, %rdi
	movups	%xmm4, (%rax)
	movl	$16, %esi
	movq	%rax, (%r8)
	call	apr_palloc@PLT
	movq	-88(%rbp), %r8
	pxor	%xmm4, %xmm4
	movq	%r12, %rdi
	movq	-152(%rbp), %rdx
	movups	%xmm4, (%rax)
	movl	$16, %esi
	movq	%rax, 8(%r8)
	movq	%r8, 8(%rdx)
	movq	%rdx, 8(%r14)
	movq	%r14, 0(%r13)
	call	apr_palloc@PLT
	pxor	%xmm4, %xmm4
	movl	$16, %esi
	movq	%r12, %rdi
	movups	%xmm4, (%rax)
	movq	%rax, %r14
	call	apr_palloc@PLT
	pxor	%xmm4, %xmm4
	movl	$16, %esi
	movq	%r12, %rdi
	movups	%xmm4, (%rax)
	movq	%rax, -152(%rbp)
	call	apr_palloc@PLT
	pxor	%xmm4, %xmm4
	movl	$16, %esi
	movq	%r12, %rdi
	movups	%xmm4, (%rax)
	movq	%rax, -88(%rbp)
	call	apr_palloc@PLT
	movq	-88(%rbp), %r8
	pxor	%xmm4, %xmm4
	movq	%r12, %rdi
	movups	%xmm4, (%rax)
	movl	$16, %esi
	movq	%rax, (%r8)
	call	apr_palloc@PLT
	movq	-88(%rbp), %r8
	pxor	%xmm4, %xmm4
	movq	%r12, %rdi
	movq	-152(%rbp), %rdx
	movups	%xmm4, (%rax)
	movl	$16, %esi
	movq	%rax, 8(%r8)
	movq	%r8, (%rdx)
	call	apr_palloc@PLT
	pxor	%xmm4, %xmm4
	movl	$16, %esi
	movq	%r12, %rdi
	movups	%xmm4, (%rax)
	movq	%rax, -88(%rbp)
	call	apr_palloc@PLT
	movq	-88(%rbp), %r8
	pxor	%xmm4, %xmm4
	movq	%r12, %rdi
	movups	%xmm4, (%rax)
	movl	$16, %esi
	movq	%rax, (%r8)
	call	apr_palloc@PLT
	movq	-88(%rbp), %r8
	pxor	%xmm4, %xmm4
	movq	%r12, %rdi
	movq	-152(%rbp), %rdx
	movups	%xmm4, (%rax)
	movl	$16, %esi
	movq	%rax, 8(%r8)
	movq	%r8, 8(%rdx)
	movq	%rdx, (%r14)
	call	apr_palloc@PLT
	pxor	%xmm4, %xmm4
	movl	$16, %esi
	movq	%r12, %rdi
	movups	%xmm4, (%rax)
	movq	%rax, -152(%rbp)
	call	apr_palloc@PLT
	pxor	%xmm4, %xmm4
	movl	$16, %esi
	movq	%r12, %rdi
	movups	%xmm4, (%rax)
	movq	%rax, -88(%rbp)
	call	apr_palloc@PLT
	movq	-88(%rbp), %r8
	pxor	%xmm4, %xmm4
	movq	%r12, %rdi
	movups	%xmm4, (%rax)
	movl	$16, %esi
	movq	%rax, (%r8)
	call	apr_palloc@PLT
	movq	-88(%rbp), %r8
	pxor	%xmm4, %xmm4
	movq	%r12, %rdi
	movq	-152(%rbp), %rdx
	movups	%xmm4, (%rax)
	movl	$16, %esi
	movq	%rax, 8(%r8)
	movq	%r8, (%rdx)
	call	apr_palloc@PLT
	pxor	%xmm4, %xmm4
	movl	$16, %esi
	movq	%r12, %rdi
	movups	%xmm4, (%rax)
	movq	%rax, -88(%rbp)
	call	apr_palloc@PLT
	movq	-88(%rbp), %r8
	pxor	%xmm4, %xmm4
	movq	%r12, %rdi
	movups	%xmm4, (%rax)
	movl	$16, %esi
	movq	%rax, (%r8)
	call	apr_palloc@PLT
	movq	-88(%rbp), %r8
	pxor	%xmm4, %xmm4
	movq	%r12, %rdi
	movq	-152(%rbp), %rdx
	movups	%xmm4, (%rax)
	movl	$16, %esi
	movq	%rax, 8(%r8)
	movq	%r8, 8(%rdx)
	movq	%rdx, 8(%r14)
	movq	%r14, 8(%r13)
	movq	%r13, (%rbx)
	call	apr_palloc@PLT
	pxor	%xmm4, %xmm4
	movl	$16, %esi
	movq	%r12, %rdi
	movups	%xmm4, (%rax)
	movq	%rax, -152(%rbp)
	call	apr_palloc@PLT
	pxor	%xmm4, %xmm4
	movl	$16, %esi
	movq	%r12, %rdi
	movups	%xmm4, (%rax)
	movq	%rax, %r13
	call	apr_palloc@PLT
	pxor	%xmm4, %xmm4
	movl	$16, %esi
	movq	%r12, %rdi
	movups	%xmm4, (%rax)
	movq	%rax, %r14
	call	apr_palloc@PLT
	pxor	%xmm4, %xmm4
	movl	$16, %esi
	movq	%r12, %rdi
	movups	%xmm4, (%rax)
	movq	%rax, -88(%rbp)
	call	apr_palloc@PLT
	movq	-88(%rbp), %rdx
	pxor	%xmm4, %xmm4
	movq	%r12, %rdi
	movups	%xmm4, (%rax)
	movl	$16, %esi
	movq	%rax, (%rdx)
	call	apr_palloc@PLT
	movq	-88(%rbp), %rdx
	pxor	%xmm4, %xmm4
	movq	%r12, %rdi
	movups	%xmm4, (%rax)
	movl	$16, %esi
	movq	%rax, 8(%rdx)
	movq	%rdx, (%r14)
	call	apr_palloc@PLT
	pxor	%xmm4, %xmm4
	movl	$16, %esi
	movq	%r12, %rdi
	movups	%xmm4, (%rax)
	movq	%rax, -88(%rbp)
	call	apr_palloc@PLT
	movq	-88(%rbp), %rdx
	pxor	%xmm4, %xmm4
	movq	%r12, %rdi
	movups	%xmm4, (%rax)
	movl	$16, %esi
	movq	%rax, (%rdx)
	call	apr_palloc@PLT
	movq	-88(%rbp), %rdx
	pxor	%xmm4, %xmm4
	movq	%r12, %rdi
	movups	%xmm4, (%rax)
	movl	$16, %esi
	movq	%rax, 8(%rdx)
	movq	%rdx, 8(%r14)
	movq	%r14, 0(%r13)
	call	apr_palloc@PLT
	pxor	%xmm4, %xmm4
	movl	$16, %esi
	movq	%r12, %rdi
	movups	%xmm4, (%rax)
	movq	%rax, %r14
	call	apr_palloc@PLT
	pxor	%xmm4, %xmm4
	movl	$16, %esi
	movq	%r12, %rdi
	movups	%xmm4, (%rax)
	movq	%rax, -88(%rbp)
	call	apr_palloc@PLT
	movq	-88(%rbp), %rdx
	pxor	%xmm4, %xmm4
	movq	%r12, %rdi
	movups	%xmm4, (%rax)
	movl	$16, %esi
	movq	%rax, (%rdx)
	call	apr_palloc@PLT
	movq	-88(%rbp), %rdx
	pxor	%xmm4, %xmm4
	movq	%r12, %rdi
	movups	%xmm4, (%rax)
	movl	$16, %esi
	movq	%rax, 8(%rdx)
	movq	%rdx, (%r14)
	call	apr_palloc@PLT
	pxor	%xmm4, %xmm4
	movl	$16, %esi
	movq	%r12, %rdi
	movups	%xmm4, (%rax)
	movq	%rax, -88(%rbp)
	call	apr_palloc@PLT
	movq	-88(%rbp), %rdx
	pxor	%xmm4, %xmm4
	movq	%r12, %rdi
	movups	%xmm4, (%rax)
	movl	$16, %esi
	movq	%rax, (%rdx)
	call	apr_palloc@PLT
	movq	-88(%rbp), %rdx
	pxor	%xmm4, %xmm4
	movq	%r12, %rdi
	movq	-152(%rbp), %r9
	movups	%xmm4, (%rax)
	movl	$16, %esi
	movq	%rax, 8(%rdx)
	movq	%rdx, 8(%r14)
	movq	%r14, 8(%r13)
	movq	%r13, (%r9)
	movq	%r9, -160(%rbp)
	call	apr_palloc@PLT
	pxor	%xmm4, %xmm4
	movl	$16, %esi
	movq	%r12, %rdi
	movups	%xmm4, (%rax)
	movq	%rax, -88(%rbp)
	call	apr_palloc@PLT
	pxor	%xmm4, %xmm4
	movl	$16, %esi
	movq	%r12, %rdi
	movups	%xmm4, (%rax)
	movq	%rax, %r13
	call	apr_palloc@PLT
	pxor	%xmm4, %xmm4
	movl	$16, %esi
	movq	%r12, %rdi
	movups	%xmm4, (%rax)
	movq	%rax, %r14
	call	apr_palloc@PLT
	pxor	%xmm4, %xmm4
	movl	$16, %esi
	movq	%r12, %rdi
	movups	%xmm4, (%rax)
	movq	%rax, (%r14)
	call	apr_palloc@PLT
	pxor	%xmm4, %xmm4
	movl	$16, %esi
	movq	%r12, %rdi
	movups	%xmm4, (%rax)
	movq	%rax, 8(%r14)
	movq	%r14, 0(%r13)
	call	apr_palloc@PLT
	pxor	%xmm4, %xmm4
	movl	$16, %esi
	movq	%r12, %rdi
	movups	%xmm4, (%rax)
	movq	%rax, %r14
	call	apr_palloc@PLT
	pxor	%xmm4, %xmm4
	movl	$16, %esi
	movq	%r12, %rdi
	movups	%xmm4, (%rax)
	movq	%rax, (%r14)
	call	apr_palloc@PLT
	movq	-88(%rbp), %r8
	pxor	%xmm4, %xmm4
	movq	%r12, %rdi
	movups	%xmm4, (%rax)
	movl	$16, %esi
	movq	%rax, 8(%r14)
	movq	%r14, 8(%r13)
	movq	%r13, (%r8)
	movq	%r8, -152(%rbp)
	call	apr_palloc@PLT
	pxor	%xmm4, %xmm4
	movl	$16, %esi
	movq	%r12, %rdi
	movups	%xmm4, (%rax)
	movq	%rax, -88(%rbp)
	call	apr_palloc@PLT
	pxor	%xmm4, %xmm4
	movl	$16, %esi
	movq	%r12, %rdi
	movups	%xmm4, (%rax)
	movq	%rax, %r13
	call	apr_palloc@PLT
	pxor	%xmm4, %xmm4
	movl	$16, %esi
	movq	%r12, %rdi
	movups	%xmm4, (%rax)
	movq	%rax, 0(%r13)
	call	apr_palloc@PLT
	movq	-88(%rbp), %rdx
	pxor	%xmm4, %xmm4
	movq	%r12, %rdi
	movups	%xmm4, (%rax)
	movl	$16, %esi
	movq	%rax, 8(%r13)
	movq	%r13, (%rdx)
	call	apr_palloc@PLT
	pxor	%xmm4, %xmm4
	movl	$16, %esi
	movq	%r12, %rdi
	movups	%xmm4, (%rax)
	movq	%rax, %r14
	call	apr_palloc@PLT
	pxor	%xmm4, %xmm4
	movl	$16, %esi
	movq	%r12, %rdi
	movups	%xmm4, (%rax)
	movq	%rax, (%r14)
	call	apr_palloc@PLT
	pxor	%xmm4, %xmm4
	movq	-88(%rbp), %rdx
	movq	-152(%rbp), %r8
	movq	-160(%rbp), %r9
	movq	-176(%rbp), %rcx
	movq	%rax, %r13
	movups	%xmm4, (%rax)
.L36:
	movq	%r13, 8(%r14)
	movl	$16, %esi
	movq	%r12, %rdi
	movq	%r14, 8(%rdx)
	movq	%rdx, 8(%r8)
	movq	%r8, 8(%r9)
	movq	%r9, 8(%rbx)
	movq	%rbx, (%rcx)
	movq	%rcx, -160(%rbp)
	call	apr_palloc@PLT
	pxor	%xmm2, %xmm2
	movl	$16, %esi
	movq	%r12, %rdi
	movups	%xmm2, (%rax)
	movq	%rax, %r14
	movq	%rax, -152(%rbp)
	call	apr_palloc@PLT
	pxor	%xmm2, %xmm2
	movl	$16, %esi
	movq	%r12, %rdi
	movups	%xmm2, (%rax)
	movq	%rax, -176(%rbp)
	call	apr_palloc@PLT
	pxor	%xmm2, %xmm2
	movl	$16, %esi
	movq	%r12, %rdi
	movups	%xmm2, (%rax)
	movq	%rax, %r13
	call	apr_palloc@PLT
	pxor	%xmm2, %xmm2
	movl	$16, %esi
	movq	%r12, %rdi
	movups	%xmm2, (%rax)
	movq	%rax, %rbx
	call	apr_palloc@PLT
	pxor	%xmm2, %xmm2
	movl	$16, %esi
	movq	%r12, %rdi
	movups	%xmm2, (%rax)
	movq	%rax, -88(%rbp)
	call	apr_palloc@PLT
	pxor	%xmm2, %xmm2
	movq	-88(%rbp), %r9
	cmpq	$6, -96(%rbp)
	movq	-152(%rbp), %r8
	movq	-160(%rbp), %rcx
	movups	%xmm2, (%rax)
	jne	.L63
	movq	%rax, (%r9)
	movl	$16, %esi
	movq	%r12, %rdi
	movq	%rcx, -160(%rbp)
	movq	%r8, -152(%rbp)
	movq	%r9, -88(%rbp)
	call	apr_palloc@PLT
	movq	-88(%rbp), %r9
	pxor	%xmm3, %xmm3
	movq	%r12, %rdi
	movups	%xmm3, (%rax)
	movl	$16, %esi
	movq	%rax, 8(%r9)
	movq	%r9, (%rbx)
	call	apr_palloc@PLT
	pxor	%xmm3, %xmm3
	movl	$16, %esi
	movq	%r12, %rdi
	movups	%xmm3, (%rax)
	movq	%rax, -88(%rbp)
	call	apr_palloc@PLT
	movq	-88(%rbp), %r9
	pxor	%xmm3, %xmm3
	movq	%r12, %rdi
	movups	%xmm3, (%rax)
	movl	$16, %esi
	movq	%rax, (%r9)
	call	apr_palloc@PLT
	movq	-88(%rbp), %r9
	pxor	%xmm3, %xmm3
	movq	%r12, %rdi
	movups	%xmm3, (%rax)
	movl	$16, %esi
	movq	%rax, 8(%r9)
	movq	%r9, 8(%rbx)
	movq	%rbx, 0(%r13)
	call	apr_palloc@PLT
	pxor	%xmm3, %xmm3
	movl	$16, %esi
	movq	%r12, %rdi
	movups	%xmm3, (%rax)
	movq	%rax, %rbx
	call	apr_palloc@PLT
	pxor	%xmm3, %xmm3
	movl	$16, %esi
	movq	%r12, %rdi
	movups	%xmm3, (%rax)
	movq	%rax, -88(%rbp)
	call	apr_palloc@PLT
	movq	-88(%rbp), %r9
	pxor	%xmm3, %xmm3
	movq	%r12, %rdi
	movups	%xmm3, (%rax)
	movl	$16, %esi
	movq	%rax, (%r9)
	call	apr_palloc@PLT
	movq	-88(%rbp), %r9
	pxor	%xmm3, %xmm3
	movq	%r12, %rdi
	movups	%xmm3, (%rax)
	movl	$16, %esi
	movq	%rax, 8(%r9)
	movq	%r9, (%rbx)
	call	apr_palloc@PLT
	pxor	%xmm3, %xmm3
	movl	$16, %esi
	movq	%r12, %rdi
	movups	%xmm3, (%rax)
	movq	%rax, -88(%rbp)
	call	apr_palloc@PLT
	movq	-88(%rbp), %r9
	pxor	%xmm3, %xmm3
	movq	%r12, %rdi
	movups	%xmm3, (%rax)
	movl	$16, %esi
	movq	%rax, (%r9)
	call	apr_palloc@PLT
	movq	-88(%rbp), %r9
	pxor	%xmm3, %xmm3
	movq	%r12, %rdi
	movups	%xmm3, (%rax)
	movl	$16, %esi
	movq	%rax, 8(%r9)
	movq	-176(%rbp), %rax
	movq	%r9, 8(%rbx)
	movq	%rbx, 8(%r13)
	movq	%r13, (%rax)
	call	apr_palloc@PLT
	pxor	%xmm3, %xmm3
	movl	$16, %esi
	movq	%r12, %rdi
	movups	%xmm3, (%rax)
	movq	%rax, %rbx
	call	apr_palloc@PLT
	pxor	%xmm3, %xmm3
	movl	$16, %esi
	movq	%r12, %rdi
	movups	%xmm3, (%rax)
	movq	%rax, %r13
	call	apr_palloc@PLT
	pxor	%xmm3, %xmm3
	movl	$16, %esi
	movq	%r12, %rdi
	movups	%xmm3, (%rax)
	movq	%rax, -88(%rbp)
	call	apr_palloc@PLT
	movq	-88(%rbp), %r9
	pxor	%xmm3, %xmm3
	movq	%r12, %rdi
	movups	%xmm3, (%rax)
	movl	$16, %esi
	movq	%rax, (%r9)
	call	apr_palloc@PLT
	movq	-88(%rbp), %r9
	pxor	%xmm3, %xmm3
	movq	%r12, %rdi
	movups	%xmm3, (%rax)
	movl	$16, %esi
	movq	%rax, 8(%r9)
	movq	%r9, 0(%r13)
	call	apr_palloc@PLT
	pxor	%xmm3, %xmm3
	movl	$16, %esi
	movq	%r12, %rdi
	movups	%xmm3, (%rax)
	movq	%rax, -88(%rbp)
	call	apr_palloc@PLT
	movq	-88(%rbp), %r9
	pxor	%xmm3, %xmm3
	movq	%r12, %rdi
	movups	%xmm3, (%rax)
	movl	$16, %esi
	movq	%rax, (%r9)
	call	apr_palloc@PLT
	movq	-88(%rbp), %r9
	pxor	%xmm3, %xmm3
	movq	%r12, %rdi
	movups	%xmm3, (%rax)
	movl	$16, %esi
	movq	%rax, 8(%r9)
	movq	%r9, 8(%r13)
	movq	%r13, (%rbx)
	call	apr_palloc@PLT
	pxor	%xmm3, %xmm3
	movl	$16, %esi
	movq	%r12, %rdi
	movups	%xmm3, (%rax)
	movq	%rax, %r13
	call	apr_palloc@PLT
	pxor	%xmm3, %xmm3
	movl	$16, %esi
	movq	%r12, %rdi
	movups	%xmm3, (%rax)
	movq	%rax, -88(%rbp)
	call	apr_palloc@PLT
	movq	-88(%rbp), %r9
	pxor	%xmm3, %xmm3
	movq	%r12, %rdi
	movups	%xmm3, (%rax)
	movl	$16, %esi
	movq	%rax, (%r9)
	call	apr_palloc@PLT
	movq	-88(%rbp), %r9
	pxor	%xmm3, %xmm3
	movq	%r12, %rdi
	movups	%xmm3, (%rax)
	movl	$16, %esi
	movq	%rax, 8(%r9)
	movq	%r9, 0(%r13)
	call	apr_palloc@PLT
	pxor	%xmm3, %xmm3
	movl	$16, %esi
	movq	%r12, %rdi
	movups	%xmm3, (%rax)
	movq	%rax, -88(%rbp)
	call	apr_palloc@PLT
	movq	-88(%rbp), %r9
	pxor	%xmm3, %xmm3
	movq	%r12, %rdi
	movups	%xmm3, (%rax)
	movl	$16, %esi
	movq	%rax, (%r9)
	call	apr_palloc@PLT
	movq	-88(%rbp), %r9
	pxor	%xmm3, %xmm3
	movq	%r12, %rdi
	movups	%xmm3, (%rax)
	movq	-152(%rbp), %r8
	movl	$16, %esi
	movq	%rax, 8(%r9)
	movq	-176(%rbp), %rax
	movq	%r9, 8(%r13)
	movq	%r13, 8(%rbx)
	movq	%rbx, 8(%rax)
	movq	%rax, (%r8)
	call	apr_palloc@PLT
	pxor	%xmm3, %xmm3
	movl	$16, %esi
	movq	%r12, %rdi
	movups	%xmm3, (%rax)
	movq	%rax, %r13
	call	apr_palloc@PLT
	pxor	%xmm3, %xmm3
	movl	$16, %esi
	movq	%r12, %rdi
	movups	%xmm3, (%rax)
	movq	%rax, %rbx
	call	apr_palloc@PLT
	pxor	%xmm3, %xmm3
	movl	$16, %esi
	movq	%r12, %rdi
	movups	%xmm3, (%rax)
	movq	%rax, -152(%rbp)
	call	apr_palloc@PLT
	pxor	%xmm3, %xmm3
	movl	$16, %esi
	movq	%r12, %rdi
	movups	%xmm3, (%rax)
	movq	%rax, -88(%rbp)
	call	apr_palloc@PLT
	movq	-88(%rbp), %r8
	pxor	%xmm3, %xmm3
	movq	%r12, %rdi
	movups	%xmm3, (%rax)
	movl	$16, %esi
	movq	%rax, (%r8)
	call	apr_palloc@PLT
	movq	-88(%rbp), %r8
	pxor	%xmm3, %xmm3
	movq	%r12, %rdi
	movq	-152(%rbp), %rdx
	movups	%xmm3, (%rax)
	movl	$16, %esi
	movq	%rax, 8(%r8)
	movq	%r8, (%rdx)
	call	apr_palloc@PLT
	pxor	%xmm3, %xmm3
	movl	$16, %esi
	movq	%r12, %rdi
	movups	%xmm3, (%rax)
	movq	%rax, -88(%rbp)
	call	apr_palloc@PLT
	movq	-88(%rbp), %r8
	pxor	%xmm3, %xmm3
	movq	%r12, %rdi
	movups	%xmm3, (%rax)
	movl	$16, %esi
	movq	%rax, (%r8)
	call	apr_palloc@PLT
	movq	-88(%rbp), %r8
	pxor	%xmm3, %xmm3
	movq	%r12, %rdi
	movq	-152(%rbp), %rdx
	movups	%xmm3, (%rax)
	movl	$16, %esi
	movq	%rax, 8(%r8)
	movq	%r8, 8(%rdx)
	movq	%rdx, (%rbx)
	call	apr_palloc@PLT
	pxor	%xmm3, %xmm3
	movl	$16, %esi
	movq	%r12, %rdi
	movups	%xmm3, (%rax)
	movq	%rax, -152(%rbp)
	call	apr_palloc@PLT
	pxor	%xmm3, %xmm3
	movl	$16, %esi
	movq	%r12, %rdi
	movups	%xmm3, (%rax)
	movq	%rax, -88(%rbp)
	call	apr_palloc@PLT
	movq	-88(%rbp), %r8
	pxor	%xmm3, %xmm3
	movq	%r12, %rdi
	movups	%xmm3, (%rax)
	movl	$16, %esi
	movq	%rax, (%r8)
	call	apr_palloc@PLT
	movq	-88(%rbp), %r8
	pxor	%xmm3, %xmm3
	movq	%r12, %rdi
	movq	-152(%rbp), %rdx
	movups	%xmm3, (%rax)
	movl	$16, %esi
	movq	%rax, 8(%r8)
	movq	%r8, (%rdx)
	call	apr_palloc@PLT
	pxor	%xmm3, %xmm3
	movl	$16, %esi
	movq	%r12, %rdi
	movups	%xmm3, (%rax)
	movq	%rax, -88(%rbp)
	call	apr_palloc@PLT
	movq	-88(%rbp), %r8
	pxor	%xmm3, %xmm3
	movq	%r12, %rdi
	movups	%xmm3, (%rax)
	movl	$16, %esi
	movq	%rax, (%r8)
	call	apr_palloc@PLT
	movq	-88(%rbp), %r8
	pxor	%xmm3, %xmm3
	movq	%r12, %rdi
	movq	-152(%rbp), %rdx
	movups	%xmm3, (%rax)
	movl	$16, %esi
	movq	%rax, 8(%r8)
	movq	%r8, 8(%rdx)
	movq	%rdx, 8(%rbx)
	movq	%rbx, 0(%r13)
	call	apr_palloc@PLT
	pxor	%xmm3, %xmm3
	movl	$16, %esi
	movq	%r12, %rdi
	movups	%xmm3, (%rax)
	movq	%rax, %rbx
	call	apr_palloc@PLT
	pxor	%xmm3, %xmm3
	movl	$16, %esi
	movq	%r12, %rdi
	movups	%xmm3, (%rax)
	movq	%rax, -152(%rbp)
	call	apr_palloc@PLT
	pxor	%xmm3, %xmm3
	movl	$16, %esi
	movq	%r12, %rdi
	movups	%xmm3, (%rax)
	movq	%rax, -88(%rbp)
	call	apr_palloc@PLT
	movq	-88(%rbp), %r8
	pxor	%xmm3, %xmm3
	movq	%r12, %rdi
	movups	%xmm3, (%rax)
	movl	$16, %esi
	movq	%rax, (%r8)
	call	apr_palloc@PLT
	movq	-88(%rbp), %r8
	pxor	%xmm3, %xmm3
	movq	%r12, %rdi
	movq	-152(%rbp), %rdx
	movups	%xmm3, (%rax)
	movl	$16, %esi
	movq	%rax, 8(%r8)
	movq	%r8, (%rdx)
	call	apr_palloc@PLT
	pxor	%xmm3, %xmm3
	movl	$16, %esi
	movq	%r12, %rdi
	movups	%xmm3, (%rax)
	movq	%rax, -88(%rbp)
	call	apr_palloc@PLT
	movq	-88(%rbp), %r8
	pxor	%xmm3, %xmm3
	movq	%r12, %rdi
	movups	%xmm3, (%rax)
	movl	$16, %esi
	movq	%rax, (%r8)
	call	apr_palloc@PLT
	movq	-88(%rbp), %r8
	pxor	%xmm3, %xmm3
	movq	%r12, %rdi
	movq	-152(%rbp), %rdx
	movups	%xmm3, (%rax)
	movl	$16, %esi
	movq	%rax, 8(%r8)
	movq	%r8, 8(%rdx)
	movq	%rdx, (%rbx)
	call	apr_palloc@PLT
	pxor	%xmm3, %xmm3
	movl	$16, %esi
	movq	%r12, %rdi
	movups	%xmm3, (%rax)
	movq	%rax, -152(%rbp)
	call	apr_palloc@PLT
	pxor	%xmm3, %xmm3
	movl	$16, %esi
	movq	%r12, %rdi
	movups	%xmm3, (%rax)
	movq	%rax, -88(%rbp)
	call	apr_palloc@PLT
	movq	-88(%rbp), %r8
	pxor	%xmm3, %xmm3
	movq	%r12, %rdi
	movups	%xmm3, (%rax)
	movl	$16, %esi
	movq	%rax, (%r8)
	call	apr_palloc@PLT
	movq	-88(%rbp), %r8
	pxor	%xmm3, %xmm3
	movq	%r12, %rdi
	movq	-152(%rbp), %rdx
	movups	%xmm3, (%rax)
	movl	$16, %esi
	movq	%rax, 8(%r8)
	movq	%r8, (%rdx)
	call	apr_palloc@PLT
	pxor	%xmm3, %xmm3
	movl	$16, %esi
	movq	%r12, %rdi
	movups	%xmm3, (%rax)
	movq	%rax, -88(%rbp)
	call	apr_palloc@PLT
	movq	-88(%rbp), %r8
	pxor	%xmm3, %xmm3
	movq	%r12, %rdi
	movups	%xmm3, (%rax)
	movl	$16, %esi
	movq	%rax, (%r8)
	call	apr_palloc@PLT
	pxor	%xmm3, %xmm3
	movq	-88(%rbp), %r8
	movq	-152(%rbp), %rdx
	movq	-160(%rbp), %rcx
	movq	%rax, %r9
	movups	%xmm3, (%rax)
.L34:
	movq	%r9, 8(%r8)
	movq	%r8, 8(%rdx)
	jmp	.L35
.L56:
	movq	8(%rbx), %rdi
	movl	$10, %edx
	xorl	%esi, %esi
	call	strtol@PLT
	movl	$2, %ecx
	cltq
	movq	%rax, -128(%rbp)
	leaq	1(%rax), %r12
	subq	$2, %rax
	cqto
	idivq	%rcx
	leaq	0(,%rax,8), %rbx
	jmp	.L17
.L58:
	orq	$0, -8(%rsp,%rdx)
	jmp	.L20
.L62:
	movq	-112(%rbp), %rdi
	movq	%r12, %rsi
	movq	%rax, -88(%rbp)
	movq	%rcx, -176(%rbp)
	movq	%r8, -152(%rbp)
	call	create_Tree
	movq	-88(%rbp), %r9
	movq	-112(%rbp), %rdi
	movq	%r12, %rsi
	movq	%rax, (%r9)
	call	create_Tree
	movq	-88(%rbp), %r9
	movl	$16, %esi
	movq	%r12, %rdi
	movq	-152(%rbp), %r8
	movq	%rax, 8(%r9)
	movq	%r9, (%r8)
	call	apr_palloc@PLT
	pxor	%xmm0, %xmm0
	movq	-112(%rbp), %rdi
	movq	%r12, %rsi
	movups	%xmm0, (%rax)
	movq	%rax, -88(%rbp)
	call	create_Tree
	movq	-88(%rbp), %r9
	movq	-112(%rbp), %rdi
	movq	%r12, %rsi
	movq	%rax, (%r9)
	call	create_Tree
	movq	-160(%rbp), %rdx
	movq	-88(%rbp), %r9
	movq	%r12, %rdi
	movq	-152(%rbp), %r8
	movl	$16, %esi
	movq	%rax, 8(%r9)
	movq	%r9, 8(%r8)
	movq	%r8, (%rdx)
	call	apr_palloc@PLT
	pxor	%xmm0, %xmm0
	movl	$16, %esi
	movq	%r12, %rdi
	movups	%xmm0, (%rax)
	movq	%rax, -152(%rbp)
	call	apr_palloc@PLT
	pxor	%xmm0, %xmm0
	movq	-112(%rbp), %rdi
	movq	%r12, %rsi
	movups	%xmm0, (%rax)
	movq	%rax, -88(%rbp)
	call	create_Tree
	movq	-88(%rbp), %r9
	movq	-112(%rbp), %rdi
	movq	%r12, %rsi
	movq	%rax, (%r9)
	call	create_Tree
	movq	-88(%rbp), %r9
	movl	$16, %esi
	movq	%r12, %rdi
	movq	-152(%rbp), %r8
	movq	%rax, 8(%r9)
	movq	%r9, (%r8)
	call	apr_palloc@PLT
	pxor	%xmm0, %xmm0
	movq	-112(%rbp), %rdi
	movq	%r12, %rsi
	movups	%xmm0, (%rax)
	movq	%rax, -88(%rbp)
	call	create_Tree
	movq	-88(%rbp), %r9
	movq	-112(%rbp), %rdi
	movq	%r12, %rsi
	movq	%rax, (%r9)
	call	create_Tree
	movq	-160(%rbp), %rdx
	movq	-88(%rbp), %r9
	movq	%r12, %rdi
	movq	-152(%rbp), %r8
	movl	$16, %esi
	movq	%rax, 8(%r9)
	movq	%r9, 8(%r8)
	movq	%r8, 8(%rdx)
	movq	%rdx, (%r14)
	call	apr_palloc@PLT
	pxor	%xmm0, %xmm0
	movl	$16, %esi
	movq	%r12, %rdi
	movups	%xmm0, (%rax)
	movq	%rax, -160(%rbp)
	call	apr_palloc@PLT
	pxor	%xmm0, %xmm0
	movl	$16, %esi
	movq	%r12, %rdi
	movups	%xmm0, (%rax)
	movq	%rax, -152(%rbp)
	call	apr_palloc@PLT
	pxor	%xmm0, %xmm0
	movq	-112(%rbp), %rdi
	movq	%r12, %rsi
	movups	%xmm0, (%rax)
	movq	%rax, -88(%rbp)
	call	create_Tree
	movq	-88(%rbp), %r9
	movq	-112(%rbp), %rdi
	movq	%r12, %rsi
	movq	%rax, (%r9)
	call	create_Tree
	movq	-88(%rbp), %r9
	movl	$16, %esi
	movq	%r12, %rdi
	movq	-152(%rbp), %r8
	movq	%rax, 8(%r9)
	movq	%r9, (%r8)
	call	apr_palloc@PLT
	pxor	%xmm0, %xmm0
	movq	-112(%rbp), %rdi
	movq	%r12, %rsi
	movups	%xmm0, (%rax)
	movq	%rax, -88(%rbp)
	call	create_Tree
	movq	-88(%rbp), %r9
	movq	-112(%rbp), %rdi
	movq	%r12, %rsi
	movq	%rax, (%r9)
	call	create_Tree
	movq	-160(%rbp), %rdx
	movq	-88(%rbp), %r9
	movq	%r12, %rdi
	movq	-152(%rbp), %r8
	movl	$16, %esi
	movq	%rax, 8(%r9)
	movq	%r9, 8(%r8)
	movq	%r8, (%rdx)
	call	apr_palloc@PLT
	pxor	%xmm0, %xmm0
	movl	$16, %esi
	movq	%r12, %rdi
	movups	%xmm0, (%rax)
	movq	%rax, -152(%rbp)
	call	apr_palloc@PLT
	pxor	%xmm0, %xmm0
	movq	-112(%rbp), %rdi
	movq	%r12, %rsi
	movups	%xmm0, (%rax)
	movq	%rax, -88(%rbp)
	call	create_Tree
	movq	-88(%rbp), %r9
	movq	-112(%rbp), %rdi
	movq	%r12, %rsi
	movq	%rax, (%r9)
	call	create_Tree
	movq	-88(%rbp), %r9
	movl	$16, %esi
	movq	%r12, %rdi
	movq	-152(%rbp), %r8
	movq	%rax, 8(%r9)
	movq	%r9, (%r8)
	call	apr_palloc@PLT
	pxor	%xmm0, %xmm0
	movq	-112(%rbp), %rdi
	movq	%r12, %rsi
	movups	%xmm0, (%rax)
	movq	%rax, -88(%rbp)
	call	create_Tree
	movq	-88(%rbp), %r9
	movq	-112(%rbp), %rdi
	movq	%r12, %rsi
	movq	%rax, (%r9)
	call	create_Tree
	movq	-160(%rbp), %rdx
	movq	-88(%rbp), %r9
	movq	%r12, %rdi
	movq	-152(%rbp), %r8
	movl	$16, %esi
	movq	%rax, 8(%r9)
	movq	%r9, 8(%r8)
	movq	%r8, 8(%rdx)
	movq	%rdx, 8(%r14)
	movq	%r14, 0(%r13)
	call	apr_palloc@PLT
	pxor	%xmm0, %xmm0
	movl	$16, %esi
	movq	%r12, %rdi
	movups	%xmm0, (%rax)
	movq	%rax, %r14
	call	apr_palloc@PLT
	pxor	%xmm0, %xmm0
	movl	$16, %esi
	movq	%r12, %rdi
	movups	%xmm0, (%rax)
	movq	%rax, -160(%rbp)
	call	apr_palloc@PLT
	pxor	%xmm0, %xmm0
	movl	$16, %esi
	movq	%r12, %rdi
	movups	%xmm0, (%rax)
	movq	%rax, -152(%rbp)
	call	apr_palloc@PLT
	pxor	%xmm0, %xmm0
	movq	-112(%rbp), %rdi
	movq	%r12, %rsi
	movups	%xmm0, (%rax)
	movq	%rax, -88(%rbp)
	call	create_Tree
	movq	-88(%rbp), %r9
	movq	-112(%rbp), %rdi
	movq	%r12, %rsi
	movq	%rax, (%r9)
	call	create_Tree
	movq	-88(%rbp), %r9
	movl	$16, %esi
	movq	%r12, %rdi
	movq	-152(%rbp), %r8
	movq	%rax, 8(%r9)
	movq	%r9, (%r8)
	call	apr_palloc@PLT
	pxor	%xmm0, %xmm0
	movq	-112(%rbp), %rdi
	movq	%r12, %rsi
	movups	%xmm0, (%rax)
	movq	%rax, -88(%rbp)
	call	create_Tree
	movq	-88(%rbp), %r9
	movq	-112(%rbp), %rdi
	movq	%r12, %rsi
	movq	%rax, (%r9)
	call	create_Tree
	movq	-160(%rbp), %rdx
	movq	-88(%rbp), %r9
	movq	%r12, %rdi
	movq	-152(%rbp), %r8
	movl	$16, %esi
	movq	%rax, 8(%r9)
	movq	%r9, 8(%r8)
	movq	%r8, (%rdx)
	call	apr_palloc@PLT
	pxor	%xmm0, %xmm0
	movl	$16, %esi
	movq	%r12, %rdi
	movups	%xmm0, (%rax)
	movq	%rax, -152(%rbp)
	call	apr_palloc@PLT
	pxor	%xmm0, %xmm0
	movq	-112(%rbp), %rdi
	movq	%r12, %rsi
	movups	%xmm0, (%rax)
	movq	%rax, -88(%rbp)
	call	create_Tree
	movq	-88(%rbp), %r9
	movq	-112(%rbp), %rdi
	movq	%r12, %rsi
	movq	%rax, (%r9)
	call	create_Tree
	movq	-88(%rbp), %r9
	movl	$16, %esi
	movq	%r12, %rdi
	movq	-152(%rbp), %r8
	movq	%rax, 8(%r9)
	movq	%r9, (%r8)
	call	apr_palloc@PLT
	pxor	%xmm0, %xmm0
	movq	-112(%rbp), %rdi
	movq	%r12, %rsi
	movups	%xmm0, (%rax)
	movq	%rax, -88(%rbp)
	call	create_Tree
	movq	-88(%rbp), %r9
	movq	-112(%rbp), %rdi
	movq	%r12, %rsi
	movq	%rax, (%r9)
	call	create_Tree
	movq	-160(%rbp), %rdx
	movq	-88(%rbp), %r9
	movq	%r12, %rdi
	movq	-152(%rbp), %r8
	movl	$16, %esi
	movq	%rax, 8(%r9)
	movq	%r9, 8(%r8)
	movq	%r8, 8(%rdx)
	movq	%rdx, (%r14)
	call	apr_palloc@PLT
	pxor	%xmm0, %xmm0
	movl	$16, %esi
	movq	%r12, %rdi
	movups	%xmm0, (%rax)
	movq	%rax, -160(%rbp)
	call	apr_palloc@PLT
	pxor	%xmm0, %xmm0
	movl	$16, %esi
	movq	%r12, %rdi
	movups	%xmm0, (%rax)
	movq	%rax, -152(%rbp)
	call	apr_palloc@PLT
	pxor	%xmm0, %xmm0
	movq	-112(%rbp), %rdi
	movq	%r12, %rsi
	movups	%xmm0, (%rax)
	movq	%rax, -88(%rbp)
	call	create_Tree
	movq	-88(%rbp), %r9
	movq	-112(%rbp), %rdi
	movq	%r12, %rsi
	movq	%rax, (%r9)
	call	create_Tree
	movq	-88(%rbp), %r9
	movl	$16, %esi
	movq	%r12, %rdi
	movq	-152(%rbp), %r8
	movq	%rax, 8(%r9)
	movq	%r9, (%r8)
	call	apr_palloc@PLT
	pxor	%xmm0, %xmm0
	movq	-112(%rbp), %rdi
	movq	%r12, %rsi
	movups	%xmm0, (%rax)
	movq	%rax, -88(%rbp)
	call	create_Tree
	movq	-88(%rbp), %r9
	movq	-112(%rbp), %rdi
	movq	%r12, %rsi
	movq	%rax, (%r9)
	call	create_Tree
	movq	-160(%rbp), %rdx
	movq	-88(%rbp), %r9
	movq	%r12, %rdi
	movq	-152(%rbp), %r8
	movl	$16, %esi
	movq	%rax, 8(%r9)
	movq	%r9, 8(%r8)
	movq	%r8, (%rdx)
	call	apr_palloc@PLT
	pxor	%xmm0, %xmm0
	movl	$16, %esi
	movq	%r12, %rdi
	movups	%xmm0, (%rax)
	movq	%rax, -152(%rbp)
	call	apr_palloc@PLT
	pxor	%xmm0, %xmm0
	movq	-112(%rbp), %rdi
	movq	%r12, %rsi
	movups	%xmm0, (%rax)
	movq	%rax, -88(%rbp)
	call	create_Tree
	movq	-88(%rbp), %r9
	movq	-112(%rbp), %rdi
	movq	%r12, %rsi
	movq	%rax, (%r9)
	call	create_Tree
	movq	-88(%rbp), %r9
	movl	$16, %esi
	movq	%r12, %rdi
	movq	-152(%rbp), %r8
	movq	%rax, 8(%r9)
	movq	%r9, (%r8)
	call	apr_palloc@PLT
	pxor	%xmm0, %xmm0
	movq	-112(%rbp), %rdi
	movq	%r12, %rsi
	movups	%xmm0, (%rax)
	movq	%rax, -88(%rbp)
	call	create_Tree
	movq	-88(%rbp), %r9
	movq	-112(%rbp), %rdi
	movq	%r12, %rsi
	movq	%rax, (%r9)
	call	create_Tree
	movq	-88(%rbp), %r9
	movl	$16, %esi
	movq	%r12, %rdi
	movq	-160(%rbp), %rdx
	movq	-152(%rbp), %r8
	movq	%rax, 8(%r9)
	movq	%r9, 8(%r8)
	movq	%r8, 8(%rdx)
	movq	%rdx, 8(%r14)
	movq	%r14, 8(%r13)
	movq	%r13, (%rbx)
	call	apr_palloc@PLT
	pxor	%xmm0, %xmm0
	movl	$16, %esi
	movq	%r12, %rdi
	movups	%xmm0, (%rax)
	movq	%rax, -160(%rbp)
	call	apr_palloc@PLT
	pxor	%xmm0, %xmm0
	movl	$16, %esi
	movq	%r12, %rdi
	movups	%xmm0, (%rax)
	movq	%rax, %r13
	call	apr_palloc@PLT
	pxor	%xmm0, %xmm0
	movl	$16, %esi
	movq	%r12, %rdi
	movups	%xmm0, (%rax)
	movq	%rax, %r14
	call	apr_palloc@PLT
	pxor	%xmm0, %xmm0
	movl	$16, %esi
	movq	%r12, %rdi
	movups	%xmm0, (%rax)
	movq	%rax, -152(%rbp)
	call	apr_palloc@PLT
	pxor	%xmm0, %xmm0
	movq	-112(%rbp), %rdi
	movq	%r12, %rsi
	movups	%xmm0, (%rax)
	movq	%rax, -88(%rbp)
	call	create_Tree
	movq	-88(%rbp), %r8
	movq	-112(%rbp), %rdi
	movq	%r12, %rsi
	movq	%rax, (%r8)
	call	create_Tree
	movq	-88(%rbp), %r8
	movl	$16, %esi
	movq	%r12, %rdi
	movq	-152(%rbp), %rdx
	movq	%rax, 8(%r8)
	movq	%r8, (%rdx)
	call	apr_palloc@PLT
	pxor	%xmm0, %xmm0
	movq	-112(%rbp), %rdi
	movq	%r12, %rsi
	movups	%xmm0, (%rax)
	movq	%rax, -88(%rbp)
	call	create_Tree
	movq	-88(%rbp), %r8
	movq	-112(%rbp), %rdi
	movq	%r12, %rsi
	movq	%rax, (%r8)
	call	create_Tree
	movq	-152(%rbp), %rdx
	movq	-88(%rbp), %r8
	movq	%r12, %rdi
	movl	$16, %esi
	movq	%rax, 8(%r8)
	movq	%r8, 8(%rdx)
	movq	%rdx, (%r14)
	call	apr_palloc@PLT
	pxor	%xmm0, %xmm0
	movl	$16, %esi
	movq	%r12, %rdi
	movups	%xmm0, (%rax)
	movq	%rax, -152(%rbp)
	call	apr_palloc@PLT
	pxor	%xmm0, %xmm0
	movq	-112(%rbp), %rdi
	movq	%r12, %rsi
	movups	%xmm0, (%rax)
	movq	%rax, -88(%rbp)
	call	create_Tree
	movq	-88(%rbp), %r8
	movq	-112(%rbp), %rdi
	movq	%r12, %rsi
	movq	%rax, (%r8)
	call	create_Tree
	movq	-88(%rbp), %r8
	movl	$16, %esi
	movq	%r12, %rdi
	movq	-152(%rbp), %rdx
	movq	%rax, 8(%r8)
	movq	%r8, (%rdx)
	call	apr_palloc@PLT
	pxor	%xmm0, %xmm0
	movq	-112(%rbp), %rdi
	movq	%r12, %rsi
	movups	%xmm0, (%rax)
	movq	%rax, -88(%rbp)
	call	create_Tree
	movq	-88(%rbp), %r8
	movq	-112(%rbp), %rdi
	movq	%r12, %rsi
	movq	%rax, (%r8)
	call	create_Tree
	movq	-152(%rbp), %rdx
	movq	-88(%rbp), %r8
	movq	%r12, %rdi
	movl	$16, %esi
	movq	%rax, 8(%r8)
	movq	%r8, 8(%rdx)
	movq	%rdx, 8(%r14)
	movq	%r14, 0(%r13)
	call	apr_palloc@PLT
	pxor	%xmm0, %xmm0
	movl	$16, %esi
	movq	%r12, %rdi
	movups	%xmm0, (%rax)
	movq	%rax, %r14
	call	apr_palloc@PLT
	pxor	%xmm0, %xmm0
	movl	$16, %esi
	movq	%r12, %rdi
	movups	%xmm0, (%rax)
	movq	%rax, -152(%rbp)
	call	apr_palloc@PLT
	pxor	%xmm0, %xmm0
	movq	-112(%rbp), %rdi
	movq	%r12, %rsi
	movups	%xmm0, (%rax)
	movq	%rax, -88(%rbp)
	call	create_Tree
	movq	-88(%rbp), %r8
	movq	-112(%rbp), %rdi
	movq	%r12, %rsi
	movq	%rax, (%r8)
	call	create_Tree
	movq	-88(%rbp), %r8
	movl	$16, %esi
	movq	%r12, %rdi
	movq	-152(%rbp), %rdx
	movq	%rax, 8(%r8)
	movq	%r8, (%rdx)
	call	apr_palloc@PLT
	pxor	%xmm0, %xmm0
	movq	-112(%rbp), %rdi
	movq	%r12, %rsi
	movups	%xmm0, (%rax)
	movq	%rax, -88(%rbp)
	call	create_Tree
	movq	-88(%rbp), %r8
	movq	-112(%rbp), %rdi
	movq	%r12, %rsi
	movq	%rax, (%r8)
	call	create_Tree
	movq	-152(%rbp), %rdx
	movq	-88(%rbp), %r8
	movq	%r12, %rdi
	movl	$16, %esi
	movq	%rax, 8(%r8)
	movq	%r8, 8(%rdx)
	movq	%rdx, (%r14)
	call	apr_palloc@PLT
	pxor	%xmm0, %xmm0
	movl	$16, %esi
	movq	%r12, %rdi
	movups	%xmm0, (%rax)
	movq	%rax, -152(%rbp)
	call	apr_palloc@PLT
	pxor	%xmm0, %xmm0
	movq	-112(%rbp), %rdi
	movq	%r12, %rsi
	movups	%xmm0, (%rax)
	movq	%rax, -88(%rbp)
	call	create_Tree
	movq	-88(%rbp), %r8
	movq	-112(%rbp), %rdi
	movq	%r12, %rsi
	movq	%rax, (%r8)
	call	create_Tree
	movq	-88(%rbp), %r8
	movl	$16, %esi
	movq	%r12, %rdi
	movq	-152(%rbp), %rdx
	movq	%rax, 8(%r8)
	movq	%r8, (%rdx)
	call	apr_palloc@PLT
	pxor	%xmm0, %xmm0
	movq	-112(%rbp), %rdi
	movq	%r12, %rsi
	movups	%xmm0, (%rax)
	movq	%rax, -88(%rbp)
	call	create_Tree
	movq	-88(%rbp), %r8
	movq	-112(%rbp), %rdi
	movq	%r12, %rsi
	movq	%rax, (%r8)
	call	create_Tree
	movq	-160(%rbp), %r9
	movq	-88(%rbp), %r8
	movq	%r12, %rdi
	movq	-152(%rbp), %rdx
	movl	$16, %esi
	movq	%rax, 8(%r8)
	movq	%r8, 8(%rdx)
	movq	%rdx, 8(%r14)
	movq	%r14, 8(%r13)
	movq	%r13, (%r9)
	call	apr_palloc@PLT
	pxor	%xmm0, %xmm0
	movl	$16, %esi
	movq	%r12, %rdi
	movups	%xmm0, (%rax)
	movq	%rax, -152(%rbp)
	call	apr_palloc@PLT
	pxor	%xmm0, %xmm0
	movl	$16, %esi
	movq	%r12, %rdi
	movups	%xmm0, (%rax)
	movq	%rax, %r13
	call	apr_palloc@PLT
	pxor	%xmm0, %xmm0
	movl	$16, %esi
	movq	%r12, %rdi
	movups	%xmm0, (%rax)
	movq	%rax, %r14
	call	apr_palloc@PLT
	pxor	%xmm0, %xmm0
	movq	-112(%rbp), %rdi
	movq	%r12, %rsi
	movups	%xmm0, (%rax)
	movq	%rax, -88(%rbp)
	call	create_Tree
	movq	-88(%rbp), %rdx
	movq	-112(%rbp), %rdi
	movq	%r12, %rsi
	movq	%rax, (%rdx)
	call	create_Tree
	movq	-88(%rbp), %rdx
	movl	$16, %esi
	movq	%r12, %rdi
	movq	%rax, 8(%rdx)
	movq	%rdx, (%r14)
	call	apr_palloc@PLT
	pxor	%xmm0, %xmm0
	movq	-112(%rbp), %rdi
	movq	%r12, %rsi
	movups	%xmm0, (%rax)
	movq	%rax, -88(%rbp)
	call	create_Tree
	movq	-88(%rbp), %rdx
	movq	-112(%rbp), %rdi
	movq	%r12, %rsi
	movq	%rax, (%rdx)
	call	create_Tree
	movq	-88(%rbp), %rdx
	movl	$16, %esi
	movq	%r12, %rdi
	movq	%rax, 8(%rdx)
	movq	%rdx, 8(%r14)
	movq	%r14, 0(%r13)
	call	apr_palloc@PLT
	pxor	%xmm0, %xmm0
	movl	$16, %esi
	movq	%r12, %rdi
	movups	%xmm0, (%rax)
	movq	%rax, %r14
	call	apr_palloc@PLT
	pxor	%xmm0, %xmm0
	movq	-112(%rbp), %rdi
	movq	%r12, %rsi
	movups	%xmm0, (%rax)
	movq	%rax, -88(%rbp)
	call	create_Tree
	movq	-88(%rbp), %rdx
	movq	-112(%rbp), %rdi
	movq	%r12, %rsi
	movq	%rax, (%rdx)
	call	create_Tree
	movq	-88(%rbp), %rdx
	movl	$16, %esi
	movq	%r12, %rdi
	movq	%rax, 8(%rdx)
	movq	%rdx, (%r14)
	call	apr_palloc@PLT
	pxor	%xmm0, %xmm0
	movq	-112(%rbp), %rdi
	movq	%r12, %rsi
	movups	%xmm0, (%rax)
	movq	%rax, -88(%rbp)
	call	create_Tree
	movq	-88(%rbp), %rdx
	movq	-112(%rbp), %rdi
	movq	%r12, %rsi
	movq	%rax, (%rdx)
	call	create_Tree
	movq	-152(%rbp), %r8
	movq	-88(%rbp), %rdx
	movq	%r12, %rdi
	movl	$16, %esi
	movq	%rax, 8(%rdx)
	movq	%rdx, 8(%r14)
	movq	%r14, 8(%r13)
	movq	%r13, (%r8)
	call	apr_palloc@PLT
	pxor	%xmm0, %xmm0
	movl	$16, %esi
	movq	%r12, %rdi
	movups	%xmm0, (%rax)
	movq	%rax, -88(%rbp)
	call	apr_palloc@PLT
	pxor	%xmm0, %xmm0
	movl	$16, %esi
	movq	%r12, %rdi
	movups	%xmm0, (%rax)
	movq	%rax, %r13
	call	apr_palloc@PLT
	pxor	%xmm0, %xmm0
	movq	-112(%rbp), %rdi
	movq	%r12, %rsi
	movups	%xmm0, (%rax)
	movq	%rax, %r14
	call	create_Tree
	movq	-112(%rbp), %rdi
	movq	%r12, %rsi
	movq	%rax, (%r14)
	call	create_Tree
	movl	$16, %esi
	movq	%r12, %rdi
	movq	%rax, 8(%r14)
	movq	%r14, 0(%r13)
	call	apr_palloc@PLT
	pxor	%xmm0, %xmm0
	movq	-112(%rbp), %rdi
	movq	%r12, %rsi
	movups	%xmm0, (%rax)
	movq	%rax, %r14
	call	create_Tree
	movq	-112(%rbp), %rdi
	movq	%r12, %rsi
	movq	%rax, (%r14)
	call	create_Tree
	movq	-88(%rbp), %rdx
	movl	$16, %esi
	movq	%r12, %rdi
	movq	%rax, 8(%r14)
	movq	%r14, 8(%r13)
	movq	%r13, (%rdx)
	call	apr_palloc@PLT
	pxor	%xmm0, %xmm0
	movl	$16, %esi
	movq	%r12, %rdi
	movups	%xmm0, (%rax)
	movq	%rax, %r14
	call	apr_palloc@PLT
	pxor	%xmm0, %xmm0
	movq	-112(%rbp), %rdi
	movq	%r12, %rsi
	movups	%xmm0, (%rax)
	movq	%rax, %r13
	call	create_Tree
	movq	-112(%rbp), %rdi
	movq	%r12, %rsi
	movq	%rax, 0(%r13)
	call	create_Tree
	movl	$16, %esi
	movq	%r12, %rdi
	movq	%rax, 8(%r13)
	movq	%r13, (%r14)
	call	apr_palloc@PLT
	pxor	%xmm0, %xmm0
	movq	-112(%rbp), %rdi
	movq	%r12, %rsi
	movups	%xmm0, (%rax)
	movq	%rax, %r13
	call	create_Tree
	movq	-112(%rbp), %rdi
	movq	%r12, %rsi
	movq	%rax, 0(%r13)
	call	create_Tree
	movq	-176(%rbp), %rcx
	movq	-160(%rbp), %r9
	movq	-152(%rbp), %r8
	movq	-88(%rbp), %rdx
	movq	%rax, 8(%r13)
	jmp	.L36
.L63:
	movq	-112(%rbp), %rdi
	movq	%r12, %rsi
	movq	%r8, -160(%rbp)
	movq	%rcx, -184(%rbp)
	movq	%r9, -152(%rbp)
	movq	%rax, -88(%rbp)
	call	create_Tree
	movq	-88(%rbp), %r10
	movq	-112(%rbp), %rdi
	movq	%r12, %rsi
	movq	%rax, (%r10)
	call	create_Tree
	movq	-88(%rbp), %r10
	movl	$16, %esi
	movq	%r12, %rdi
	movq	-152(%rbp), %r9
	movq	%rax, 8(%r10)
	movq	%r10, (%r9)
	call	apr_palloc@PLT
	pxor	%xmm2, %xmm2
	movq	-112(%rbp), %rdi
	movq	%r12, %rsi
	movups	%xmm2, (%rax)
	movq	%rax, -88(%rbp)
	call	create_Tree
	movq	-88(%rbp), %r10
	movq	-112(%rbp), %rdi
	movq	%r12, %rsi
	movq	%rax, (%r10)
	call	create_Tree
	movq	-152(%rbp), %r9
	movq	-88(%rbp), %r10
	movq	%r12, %rdi
	movl	$16, %esi
	movq	%rax, 8(%r10)
	movq	%r10, 8(%r9)
	movq	%r9, (%rbx)
	call	apr_palloc@PLT
	pxor	%xmm2, %xmm2
	movl	$16, %esi
	movq	%r12, %rdi
	movups	%xmm2, (%rax)
	movq	%rax, -152(%rbp)
	call	apr_palloc@PLT
	pxor	%xmm2, %xmm2
	movq	-112(%rbp), %rdi
	movq	%r12, %rsi
	movups	%xmm2, (%rax)
	movq	%rax, -88(%rbp)
	call	create_Tree
	movq	-88(%rbp), %r10
	movq	-112(%rbp), %rdi
	movq	%r12, %rsi
	movq	%rax, (%r10)
	call	create_Tree
	movq	-88(%rbp), %r10
	movl	$16, %esi
	movq	%r12, %rdi
	movq	-152(%rbp), %r9
	movq	%rax, 8(%r10)
	movq	%r10, (%r9)
	call	apr_palloc@PLT
	pxor	%xmm2, %xmm2
	movq	-112(%rbp), %rdi
	movq	%r12, %rsi
	movups	%xmm2, (%rax)
	movq	%rax, -88(%rbp)
	call	create_Tree
	movq	-88(%rbp), %r10
	movq	-112(%rbp), %rdi
	movq	%r12, %rsi
	movq	%rax, (%r10)
	call	create_Tree
	movq	-152(%rbp), %r9
	movq	-88(%rbp), %r10
	movq	%r12, %rdi
	movl	$16, %esi
	movq	%rax, 8(%r10)
	movq	%r10, 8(%r9)
	movq	%r9, 8(%rbx)
	movq	%rbx, 0(%r13)
	call	apr_palloc@PLT
	pxor	%xmm2, %xmm2
	movl	$16, %esi
	movq	%r12, %rdi
	movups	%xmm2, (%rax)
	movq	%rax, %rbx
	call	apr_palloc@PLT
	pxor	%xmm2, %xmm2
	movl	$16, %esi
	movq	%r12, %rdi
	movups	%xmm2, (%rax)
	movq	%rax, -152(%rbp)
	call	apr_palloc@PLT
	pxor	%xmm2, %xmm2
	movq	-112(%rbp), %rdi
	movq	%r12, %rsi
	movups	%xmm2, (%rax)
	movq	%rax, -88(%rbp)
	call	create_Tree
	movq	-88(%rbp), %r10
	movq	-112(%rbp), %rdi
	movq	%r12, %rsi
	movq	%rax, (%r10)
	call	create_Tree
	movq	-88(%rbp), %r10
	movl	$16, %esi
	movq	%r12, %rdi
	movq	-152(%rbp), %r9
	movq	%rax, 8(%r10)
	movq	%r10, (%r9)
	call	apr_palloc@PLT
	pxor	%xmm2, %xmm2
	movq	-112(%rbp), %rdi
	movq	%r12, %rsi
	movups	%xmm2, (%rax)
	movq	%rax, -88(%rbp)
	call	create_Tree
	movq	-88(%rbp), %r10
	movq	-112(%rbp), %rdi
	movq	%r12, %rsi
	movq	%rax, (%r10)
	call	create_Tree
	movq	-152(%rbp), %r9
	movq	-88(%rbp), %r10
	movq	%r12, %rdi
	movl	$16, %esi
	movq	%rax, 8(%r10)
	movq	%r10, 8(%r9)
	movq	%r9, (%rbx)
	call	apr_palloc@PLT
	pxor	%xmm2, %xmm2
	movl	$16, %esi
	movq	%r12, %rdi
	movups	%xmm2, (%rax)
	movq	%rax, -152(%rbp)
	call	apr_palloc@PLT
	pxor	%xmm2, %xmm2
	movq	-112(%rbp), %rdi
	movq	%r12, %rsi
	movups	%xmm2, (%rax)
	movq	%rax, -88(%rbp)
	call	create_Tree
	movq	-88(%rbp), %r10
	movq	-112(%rbp), %rdi
	movq	%r12, %rsi
	movq	%rax, (%r10)
	call	create_Tree
	movq	-88(%rbp), %r10
	movl	$16, %esi
	movq	%r12, %rdi
	movq	-152(%rbp), %r9
	movq	%rax, 8(%r10)
	movq	%r10, (%r9)
	call	apr_palloc@PLT
	pxor	%xmm2, %xmm2
	movq	-112(%rbp), %rdi
	movq	%r12, %rsi
	movups	%xmm2, (%rax)
	movq	%rax, -88(%rbp)
	call	create_Tree
	movq	-88(%rbp), %r10
	movq	-112(%rbp), %rdi
	movq	%r12, %rsi
	movq	%rax, (%r10)
	call	create_Tree
	movq	-88(%rbp), %r10
	movl	$16, %esi
	movq	%r12, %rdi
	movq	-152(%rbp), %r9
	movq	%rax, 8(%r10)
	movq	-176(%rbp), %rax
	movq	%r10, 8(%r9)
	movq	%r9, 8(%rbx)
	movq	%rbx, 8(%r13)
	movq	%r13, (%rax)
	call	apr_palloc@PLT
	pxor	%xmm2, %xmm2
	movl	$16, %esi
	movq	%r12, %rdi
	movups	%xmm2, (%rax)
	movq	%rax, -152(%rbp)
	call	apr_palloc@PLT
	pxor	%xmm2, %xmm2
	movl	$16, %esi
	movq	%r12, %rdi
	movups	%xmm2, (%rax)
	movq	%rax, %rbx
	call	apr_palloc@PLT
	pxor	%xmm2, %xmm2
	movl	$16, %esi
	movq	%r12, %rdi
	movups	%xmm2, (%rax)
	movq	%rax, %r13
	call	apr_palloc@PLT
	pxor	%xmm2, %xmm2
	movq	-112(%rbp), %rdi
	movq	%r12, %rsi
	movups	%xmm2, (%rax)
	movq	%rax, -88(%rbp)
	call	create_Tree
	movq	-88(%rbp), %r9
	movq	-112(%rbp), %rdi
	movq	%r12, %rsi
	movq	%rax, (%r9)
	call	create_Tree
	movq	-88(%rbp), %r9
	movl	$16, %esi
	movq	%r12, %rdi
	movq	%rax, 8(%r9)
	movq	%r9, 0(%r13)
	call	apr_palloc@PLT
	pxor	%xmm2, %xmm2
	movq	-112(%rbp), %rdi
	movq	%r12, %rsi
	movups	%xmm2, (%rax)
	movq	%rax, -88(%rbp)
	call	create_Tree
	movq	-88(%rbp), %r9
	movq	-112(%rbp), %rdi
	movq	%r12, %rsi
	movq	%rax, (%r9)
	call	create_Tree
	movq	-88(%rbp), %r9
	movl	$16, %esi
	movq	%r12, %rdi
	movq	%rax, 8(%r9)
	movq	%r9, 8(%r13)
	movq	%r13, (%rbx)
	call	apr_palloc@PLT
	pxor	%xmm2, %xmm2
	movl	$16, %esi
	movq	%r12, %rdi
	movups	%xmm2, (%rax)
	movq	%rax, %r13
	call	apr_palloc@PLT
	pxor	%xmm2, %xmm2
	movq	-112(%rbp), %rdi
	movq	%r12, %rsi
	movups	%xmm2, (%rax)
	movq	%rax, -88(%rbp)
	call	create_Tree
	movq	-88(%rbp), %r9
	movq	-112(%rbp), %rdi
	movq	%r12, %rsi
	movq	%rax, (%r9)
	call	create_Tree
	movq	-88(%rbp), %r9
	movl	$16, %esi
	movq	%r12, %rdi
	movq	%rax, 8(%r9)
	movq	%r9, 0(%r13)
	call	apr_palloc@PLT
	pxor	%xmm2, %xmm2
	movq	-112(%rbp), %rdi
	movq	%r12, %rsi
	movups	%xmm2, (%rax)
	movq	%rax, -88(%rbp)
	call	create_Tree
	movq	-88(%rbp), %r9
	movq	-112(%rbp), %rdi
	movq	%r12, %rsi
	movq	%rax, (%r9)
	call	create_Tree
	movq	-152(%rbp), %r10
	movq	-88(%rbp), %r9
	movq	%r12, %rdi
	movl	$16, %esi
	movq	%rax, 8(%r9)
	movq	%r9, 8(%r13)
	movq	%r13, 8(%rbx)
	movq	%rbx, (%r10)
	call	apr_palloc@PLT
	pxor	%xmm2, %xmm2
	movl	$16, %esi
	movq	%r12, %rdi
	movups	%xmm2, (%rax)
	movq	%rax, %rbx
	call	apr_palloc@PLT
	pxor	%xmm2, %xmm2
	movl	$16, %esi
	movq	%r12, %rdi
	movups	%xmm2, (%rax)
	movq	%rax, %r13
	call	apr_palloc@PLT
	pxor	%xmm2, %xmm2
	movq	-112(%rbp), %rdi
	movq	%r12, %rsi
	movups	%xmm2, (%rax)
	movq	%rax, -88(%rbp)
	call	create_Tree
	movq	-88(%rbp), %r9
	movq	-112(%rbp), %rdi
	movq	%r12, %rsi
	movq	%rax, (%r9)
	call	create_Tree
	movq	-88(%rbp), %r9
	movl	$16, %esi
	movq	%r12, %rdi
	movq	%rax, 8(%r9)
	movq	%r9, 0(%r13)
	call	apr_palloc@PLT
	pxor	%xmm2, %xmm2
	movq	-112(%rbp), %rdi
	movq	%r12, %rsi
	movups	%xmm2, (%rax)
	movq	%rax, -88(%rbp)
	call	create_Tree
	movq	-88(%rbp), %r9
	movq	-112(%rbp), %rdi
	movq	%r12, %rsi
	movq	%rax, (%r9)
	call	create_Tree
	movq	-88(%rbp), %r9
	movl	$16, %esi
	movq	%r12, %rdi
	movq	%rax, 8(%r9)
	movq	%r9, 8(%r13)
	movq	%r13, (%rbx)
	call	apr_palloc@PLT
	pxor	%xmm2, %xmm2
	movl	$16, %esi
	movq	%r12, %rdi
	movups	%xmm2, (%rax)
	movq	%rax, %r13
	call	apr_palloc@PLT
	pxor	%xmm2, %xmm2
	movq	-112(%rbp), %rdi
	movq	%r12, %rsi
	movups	%xmm2, (%rax)
	movq	%rax, -88(%rbp)
	call	create_Tree
	movq	-88(%rbp), %r9
	movq	-112(%rbp), %rdi
	movq	%r12, %rsi
	movq	%rax, (%r9)
	call	create_Tree
	movq	-88(%rbp), %r9
	movl	$16, %esi
	movq	%r12, %rdi
	movq	%rax, 8(%r9)
	movq	%r9, 0(%r13)
	call	apr_palloc@PLT
	pxor	%xmm2, %xmm2
	movq	-112(%rbp), %rdi
	movq	%r12, %rsi
	movups	%xmm2, (%rax)
	movq	%rax, -88(%rbp)
	call	create_Tree
	movq	-88(%rbp), %r9
	movq	-112(%rbp), %rdi
	movq	%r12, %rsi
	movq	%rax, (%r9)
	call	create_Tree
	movq	-88(%rbp), %r9
	movl	$16, %esi
	movq	%r12, %rdi
	movq	-152(%rbp), %r10
	movq	-160(%rbp), %r8
	movq	%rax, 8(%r9)
	movq	-176(%rbp), %rax
	movq	%r9, 8(%r13)
	movq	%r13, 8(%rbx)
	movq	%rbx, 8(%r10)
	movq	%r10, 8(%rax)
	movq	%rax, (%r8)
	call	apr_palloc@PLT
	pxor	%xmm2, %xmm2
	movl	$16, %esi
	movq	%r12, %rdi
	movups	%xmm2, (%rax)
	movq	%rax, %r13
	call	apr_palloc@PLT
	pxor	%xmm2, %xmm2
	movl	$16, %esi
	movq	%r12, %rdi
	movups	%xmm2, (%rax)
	movq	%rax, -160(%rbp)
	call	apr_palloc@PLT
	pxor	%xmm2, %xmm2
	movl	$16, %esi
	movq	%r12, %rdi
	movups	%xmm2, (%rax)
	movq	%rax, %rbx
	call	apr_palloc@PLT
	pxor	%xmm2, %xmm2
	movl	$16, %esi
	movq	%r12, %rdi
	movups	%xmm2, (%rax)
	movq	%rax, -152(%rbp)
	call	apr_palloc@PLT
	pxor	%xmm2, %xmm2
	movq	-112(%rbp), %rdi
	movq	%r12, %rsi
	movups	%xmm2, (%rax)
	movq	%rax, -88(%rbp)
	call	create_Tree
	movq	-88(%rbp), %r8
	movq	-112(%rbp), %rdi
	movq	%r12, %rsi
	movq	%rax, (%r8)
	call	create_Tree
	movq	-88(%rbp), %r8
	movl	$16, %esi
	movq	%r12, %rdi
	movq	-152(%rbp), %rdx
	movq	%rax, 8(%r8)
	movq	%r8, (%rdx)
	call	apr_palloc@PLT
	pxor	%xmm2, %xmm2
	movq	-112(%rbp), %rdi
	movq	%r12, %rsi
	movups	%xmm2, (%rax)
	movq	%rax, -88(%rbp)
	call	create_Tree
	movq	-88(%rbp), %r8
	movq	-112(%rbp), %rdi
	movq	%r12, %rsi
	movq	%rax, (%r8)
	call	create_Tree
	movq	-152(%rbp), %rdx
	movq	-88(%rbp), %r8
	movq	%r12, %rdi
	movl	$16, %esi
	movq	%rax, 8(%r8)
	movq	%r8, 8(%rdx)
	movq	%rdx, (%rbx)
	call	apr_palloc@PLT
	pxor	%xmm2, %xmm2
	movl	$16, %esi
	movq	%r12, %rdi
	movups	%xmm2, (%rax)
	movq	%rax, -152(%rbp)
	call	apr_palloc@PLT
	pxor	%xmm2, %xmm2
	movq	-112(%rbp), %rdi
	movq	%r12, %rsi
	movups	%xmm2, (%rax)
	movq	%rax, -88(%rbp)
	call	create_Tree
	movq	-88(%rbp), %r8
	movq	-112(%rbp), %rdi
	movq	%r12, %rsi
	movq	%rax, (%r8)
	call	create_Tree
	movq	-88(%rbp), %r8
	movl	$16, %esi
	movq	%r12, %rdi
	movq	-152(%rbp), %rdx
	movq	%rax, 8(%r8)
	movq	%r8, (%rdx)
	call	apr_palloc@PLT
	pxor	%xmm2, %xmm2
	movq	-112(%rbp), %rdi
	movq	%r12, %rsi
	movups	%xmm2, (%rax)
	movq	%rax, -88(%rbp)
	call	create_Tree
	movq	-88(%rbp), %r8
	movq	-112(%rbp), %rdi
	movq	%r12, %rsi
	movq	%rax, (%r8)
	call	create_Tree
	movq	-160(%rbp), %r9
	movq	-88(%rbp), %r8
	movq	%r12, %rdi
	movq	-152(%rbp), %rdx
	movl	$16, %esi
	movq	%rax, 8(%r8)
	movq	%r8, 8(%rdx)
	movq	%rdx, 8(%rbx)
	movq	%rbx, (%r9)
	call	apr_palloc@PLT
	pxor	%xmm2, %xmm2
	movl	$16, %esi
	movq	%r12, %rdi
	movups	%xmm2, (%rax)
	movq	%rax, %rbx
	call	apr_palloc@PLT
	pxor	%xmm2, %xmm2
	movl	$16, %esi
	movq	%r12, %rdi
	movups	%xmm2, (%rax)
	movq	%rax, -152(%rbp)
	call	apr_palloc@PLT
	pxor	%xmm2, %xmm2
	movq	-112(%rbp), %rdi
	movq	%r12, %rsi
	movups	%xmm2, (%rax)
	movq	%rax, -88(%rbp)
	call	create_Tree
	movq	-88(%rbp), %r8
	movq	-112(%rbp), %rdi
	movq	%r12, %rsi
	movq	%rax, (%r8)
	call	create_Tree
	movq	-88(%rbp), %r8
	movl	$16, %esi
	movq	%r12, %rdi
	movq	-152(%rbp), %rdx
	movq	%rax, 8(%r8)
	movq	%r8, (%rdx)
	call	apr_palloc@PLT
	pxor	%xmm2, %xmm2
	movq	-112(%rbp), %rdi
	movq	%r12, %rsi
	movups	%xmm2, (%rax)
	movq	%rax, -88(%rbp)
	call	create_Tree
	movq	-88(%rbp), %r8
	movq	-112(%rbp), %rdi
	movq	%r12, %rsi
	movq	%rax, (%r8)
	call	create_Tree
	movq	-152(%rbp), %rdx
	movq	-88(%rbp), %r8
	movq	%r12, %rdi
	movl	$16, %esi
	movq	%rax, 8(%r8)
	movq	%r8, 8(%rdx)
	movq	%rdx, (%rbx)
	call	apr_palloc@PLT
	pxor	%xmm2, %xmm2
	movl	$16, %esi
	movq	%r12, %rdi
	movups	%xmm2, (%rax)
	movq	%rax, -152(%rbp)
	call	apr_palloc@PLT
	pxor	%xmm2, %xmm2
	movq	-112(%rbp), %rdi
	movq	%r12, %rsi
	movups	%xmm2, (%rax)
	movq	%rax, -88(%rbp)
	call	create_Tree
	movq	-88(%rbp), %r8
	movq	-112(%rbp), %rdi
	movq	%r12, %rsi
	movq	%rax, (%r8)
	call	create_Tree
	movq	-88(%rbp), %r8
	movl	$16, %esi
	movq	%r12, %rdi
	movq	-152(%rbp), %rdx
	movq	%rax, 8(%r8)
	movq	%r8, (%rdx)
	call	apr_palloc@PLT
	pxor	%xmm2, %xmm2
	movq	-112(%rbp), %rdi
	movq	%r12, %rsi
	movups	%xmm2, (%rax)
	movq	%rax, -88(%rbp)
	call	create_Tree
	movq	-88(%rbp), %r8
	movq	-112(%rbp), %rdi
	movq	%r12, %rsi
	movq	%rax, (%r8)
	call	create_Tree
	movq	-160(%rbp), %r9
	movq	-88(%rbp), %r8
	movq	%r12, %rdi
	movq	-152(%rbp), %rdx
	movl	$16, %esi
	movq	%rax, 8(%r8)
	movq	%r8, 8(%rdx)
	movq	%rdx, 8(%rbx)
	movq	%rbx, 8(%r9)
	movq	%r9, 0(%r13)
	call	apr_palloc@PLT
	pxor	%xmm2, %xmm2
	movl	$16, %esi
	movq	%r12, %rdi
	movups	%xmm2, (%rax)
	movq	%rax, %rbx
	call	apr_palloc@PLT
	pxor	%xmm2, %xmm2
	movl	$16, %esi
	movq	%r12, %rdi
	movups	%xmm2, (%rax)
	movq	%rax, -160(%rbp)
	call	apr_palloc@PLT
	pxor	%xmm2, %xmm2
	movl	$16, %esi
	movq	%r12, %rdi
	movups	%xmm2, (%rax)
	movq	%rax, -152(%rbp)
	call	apr_palloc@PLT
	pxor	%xmm2, %xmm2
	movq	-112(%rbp), %rdi
	movq	%r12, %rsi
	movups	%xmm2, (%rax)
	movq	%rax, -88(%rbp)
	call	create_Tree
	movq	-88(%rbp), %r8
	movq	-112(%rbp), %rdi
	movq	%r12, %rsi
	movq	%rax, (%r8)
	call	create_Tree
	movq	-88(%rbp), %r8
	movl	$16, %esi
	movq	%r12, %rdi
	movq	-152(%rbp), %rdx
	movq	%rax, 8(%r8)
	movq	%r8, (%rdx)
	call	apr_palloc@PLT
	pxor	%xmm2, %xmm2
	movq	-112(%rbp), %rdi
	movq	%r12, %rsi
	movups	%xmm2, (%rax)
	movq	%rax, -88(%rbp)
	call	create_Tree
	movq	-88(%rbp), %r8
	movq	-112(%rbp), %rdi
	movq	%r12, %rsi
	movq	%rax, (%r8)
	call	create_Tree
	movq	-160(%rbp), %r9
	movq	-88(%rbp), %r8
	movq	%r12, %rdi
	movq	-152(%rbp), %rdx
	movl	$16, %esi
	movq	%rax, 8(%r8)
	movq	%r8, 8(%rdx)
	movq	%rdx, (%r9)
	call	apr_palloc@PLT
	pxor	%xmm2, %xmm2
	movl	$16, %esi
	movq	%r12, %rdi
	movups	%xmm2, (%rax)
	movq	%rax, -152(%rbp)
	call	apr_palloc@PLT
	pxor	%xmm2, %xmm2
	movq	-112(%rbp), %rdi
	movq	%r12, %rsi
	movups	%xmm2, (%rax)
	movq	%rax, -88(%rbp)
	call	create_Tree
	movq	-88(%rbp), %r8
	movq	-112(%rbp), %rdi
	movq	%r12, %rsi
	movq	%rax, (%r8)
	call	create_Tree
	movq	-88(%rbp), %r8
	movl	$16, %esi
	movq	%r12, %rdi
	movq	-152(%rbp), %rdx
	movq	%rax, 8(%r8)
	movq	%r8, (%rdx)
	call	apr_palloc@PLT
	pxor	%xmm2, %xmm2
	movq	-112(%rbp), %rdi
	movq	%r12, %rsi
	movups	%xmm2, (%rax)
	movq	%rax, -88(%rbp)
	call	create_Tree
	movq	-88(%rbp), %r8
	movq	-112(%rbp), %rdi
	movq	%r12, %rsi
	movq	%rax, (%r8)
	call	create_Tree
	movq	-152(%rbp), %rdx
	movq	-88(%rbp), %r8
	movq	%r12, %rdi
	movq	-160(%rbp), %r9
	movl	$16, %esi
	movq	%rax, 8(%r8)
	movq	%r8, 8(%rdx)
	movq	%rdx, 8(%r9)
	movq	%r9, (%rbx)
	call	apr_palloc@PLT
	pxor	%xmm2, %xmm2
	movl	$16, %esi
	movq	%r12, %rdi
	movups	%xmm2, (%rax)
	movq	%rax, -160(%rbp)
	call	apr_palloc@PLT
	pxor	%xmm2, %xmm2
	movl	$16, %esi
	movq	%r12, %rdi
	movups	%xmm2, (%rax)
	movq	%rax, -152(%rbp)
	call	apr_palloc@PLT
	pxor	%xmm2, %xmm2
	movq	-112(%rbp), %rdi
	movq	%r12, %rsi
	movups	%xmm2, (%rax)
	movq	%rax, -88(%rbp)
	call	create_Tree
	movq	-88(%rbp), %r8
	movq	-112(%rbp), %rdi
	movq	%r12, %rsi
	movq	%rax, (%r8)
	call	create_Tree
	movq	-88(%rbp), %r8
	movl	$16, %esi
	movq	%r12, %rdi
	movq	-152(%rbp), %r9
	movq	%rax, 8(%r8)
	movq	%r8, (%r9)
	call	apr_palloc@PLT
	pxor	%xmm2, %xmm2
	movq	-112(%rbp), %rdi
	movq	%r12, %rsi
	movups	%xmm2, (%rax)
	movq	%rax, -88(%rbp)
	call	create_Tree
	movq	-88(%rbp), %r8
	movq	-112(%rbp), %rdi
	movq	%r12, %rsi
	movq	%rax, (%r8)
	call	create_Tree
	movq	-160(%rbp), %rdx
	movq	-88(%rbp), %r8
	movq	%r12, %rdi
	movq	-152(%rbp), %r9
	movl	$16, %esi
	movq	%rax, 8(%r8)
	movq	%r8, 8(%r9)
	movq	%r9, (%rdx)
	call	apr_palloc@PLT
	pxor	%xmm2, %xmm2
	movl	$16, %esi
	movq	%r12, %rdi
	movups	%xmm2, (%rax)
	movq	%rax, -152(%rbp)
	call	apr_palloc@PLT
	pxor	%xmm2, %xmm2
	movq	-112(%rbp), %rdi
	movq	%r12, %rsi
	movups	%xmm2, (%rax)
	movq	%rax, -88(%rbp)
	call	create_Tree
	movq	-88(%rbp), %r9
	movq	-112(%rbp), %rdi
	movq	%r12, %rsi
	movq	%rax, (%r9)
	call	create_Tree
	movq	-88(%rbp), %r9
	movl	$16, %esi
	movq	%r12, %rdi
	movq	-152(%rbp), %r8
	movq	%rax, 8(%r9)
	movq	%r9, (%r8)
	call	apr_palloc@PLT
	pxor	%xmm2, %xmm2
	movq	-112(%rbp), %rdi
	movq	%r12, %rsi
	movups	%xmm2, (%rax)
	movq	%rax, -88(%rbp)
	call	create_Tree
	movq	-88(%rbp), %r9
	movq	-112(%rbp), %rdi
	movq	%r12, %rsi
	movq	%rax, (%r9)
	call	create_Tree
	movq	-88(%rbp), %r9
	movq	-184(%rbp), %rcx
	movq	-160(%rbp), %rdx
	movq	-152(%rbp), %r8
	movq	%rax, 8(%r9)
	jmp	.L34
.L21:
	movq	-64(%rbp), %rdi
	call	apr_pool_destroy@PLT
	jmp	.L37
.L61:
	call	__stack_chk_fail@PLT
	.cfi_endproc
.LFE55:
	.size	main, .-main
	.ident	"GCC: (Ubuntu 9.3.0-10ubuntu2) 9.3.0"
	.section	.note.GNU-stack,"",@progbits
	.section	.note.gnu.property,"a"
	.align 8
	.long	 1f - 0f
	.long	 4f - 1f
	.long	 5
0:
	.string	 "GNU"
1:
	.align 8
	.long	 0xc0000002
	.long	 3f - 2f
2:
	.long	 0x3
3:
	.align 8
4:
